   1               		.file	"demo.c"
   2               		.arch atmega16
   3               	__SREG__ = 0x3f
   4               	__SP_H__ = 0x3e
   5               	__SP_L__ = 0x3d
   6               	__tmp_reg__ = 0
   7               	__zero_reg__ = 1
   8               		.global __do_copy_data
   9               		.global __do_clear_bss
  17               	.Ltext0:
  18               	.global	main
  20               	main:
  21               	.LFB6:
  22               	.LM1:
  23               	/* prologue: frame size=20 */
  24 0000 CF92      		push r12
  25 0002 DF92      		push r13
  26 0004 EF92      		push r14
  27 0006 FF92      		push r15
  28 0008 0F93      		push r16
  29 000a 1F93      		push r17
  30 000c CF93      		push r28
  31 000e DF93      		push r29
  32 0010 CDB7      		in r28,__SP_L__
  33 0012 DEB7      		in r29,__SP_H__
  34 0014 6497      		sbiw r28,20
  35 0016 0FB6      		in __tmp_reg__,__SREG__
  36 0018 F894      		cli
  37 001a DEBF      		out __SP_H__,r29
  38 001c 0FBE      		out __SREG__,__tmp_reg__
  39 001e CDBF      		out __SP_L__,r28
  40               	/* prologue end (size=16) */
  41               	.LM2:
  42 0020 81B3      		in r24,49-0x20
  43 0022 806F      		ori r24,lo8(-16)
  44 0024 81BB      		out 49-0x20,r24
  45               	.LM3:
  46 0026 A39A      		sbi 52-0x20,3
  47               	.LM4:
  48 0028 8AB3      		in r24,58-0x20
  49 002a 807E      		andi r24,lo8(-32)
  50 002c 8ABB      		out 58-0x20,r24
  51               	.LM5:
  52 002e 8BB3      		in r24,59-0x20
  53 0030 8F61      		ori r24,lo8(31)
  54 0032 8BBB      		out 59-0x20,r24
  55 0034 41E0      		ldi r20,lo8(1)
  56 0036 E42E      		mov r14,r20
  57 0038 F12C      		mov r15,__zero_reg__
  58               	.LVL0:
  59 003a 41E0      		ldi r20,lo8(1)
  60 003c 50E0      		ldi r21,hi8(1)
  61               	.LVL1:
  62 003e 00E0      		ldi r16,lo8(0)
  63 0040 10E0      		ldi r17,hi8(0)
  64               	.LVL2:
  65 0042 CC24      		clr r12
  66 0044 DD24      		clr r13
  67               	.LVL3:
  68 0046 60E6      		ldi r22,lo8(28000)
  69 0048 7DE6      		ldi r23,hi8(28000)
  70 004a DE01      		movw r26,r28
  71 004c 1196      		adiw r26,1
  72               	.LVL4:
  73               	.L146:
  74               	.LM6:
  75 004e C89B      		sbis 57-0x20,0
  76 0050 00C0      		rjmp .L3
  77               	.LM7:
  78 0052 C701      		movw r24,r14
  79               	.LVL5:
  80 0054 8F7E      		andi r24,lo8(-17)
  81 0056 00C0      		rjmp .L5
  82               	.LVL6:
  83               	.L3:
  84               	.LM8:
  85 0058 C701      		movw r24,r14
  86               	.LVL7:
  87 005a 8061      		ori r24,lo8(16)
  88               	.L5:
  89               	.LM9:
  90 005c C99B      		sbis 57-0x20,1
  91 005e 00C0      		rjmp .L6
  92               	.LM10:
  93 0060 877F      		andi r24,lo8(-9)
  94               	.LVL8:
  95 0062 00C0      		rjmp .L8
  96               	.LVL9:
  97               	.L6:
  98               	.LM11:
  99 0064 8860      		ori r24,lo8(8)
 100               	.LVL10:
 101               	.L8:
 102               	.LM12:
 103 0066 CA9B      		sbis 57-0x20,2
 104 0068 00C0      		rjmp .L9
 105               	.LM13:
 106 006a 8B7F      		andi r24,lo8(-5)
 107               	.LVL11:
 108 006c 00C0      		rjmp .L11
 109               	.LVL12:
 110               	.L9:
 111               	.LM14:
 112 006e 8460      		ori r24,lo8(4)
 113               	.LVL13:
 114               	.L11:
 115               	.LM15:
 116 0070 CB9B      		sbis 57-0x20,3
 117 0072 00C0      		rjmp .L12
 118               	.LM16:
 119 0074 8D7F      		andi r24,lo8(-3)
 120               	.LVL14:
 121 0076 00C0      		rjmp .L14
 122               	.LVL15:
 123               	.L12:
 124               	.LM17:
 125 0078 8260      		ori r24,lo8(2)
 126               	.LVL16:
 127               	.L14:
 128               	.LM18:
 129 007a CC9B      		sbis 57-0x20,4
 130 007c 00C0      		rjmp .L15
 131               	.LM19:
 132 007e 3EEF      		ldi r19,lo8(-2)
 133 0080 E32E      		mov r14,r19
 134 0082 3FEF      		ldi r19,hi8(-2)
 135 0084 F32E      		mov r15,r19
 136 0086 E822      		and r14,r24
 137 0088 F922      		and r15,r25
 138 008a 00C0      		rjmp .L17
 139               	.L15:
 140               	.LM20:
 141 008c 21E0      		ldi r18,lo8(1)
 142 008e E22E      		mov r14,r18
 143 0090 F12C      		mov r15,__zero_reg__
 144 0092 E82A      		or r14,r24
 145 0094 F92A      		or r15,r25
 146               	.L17:
 147               	.LM21:
 148 0096 84E0      		ldi r24,lo8(4)
 149 0098 E816      		cp r14,r24
 150 009a F104      		cpc r15,__zero_reg__
 151               	.LVL17:
 152 009c 01F4      		brne .L18
 153               	.LM22:
 154 009e 82B3      		in r24,50-0x20
 155 00a0 806A      		ori r24,lo8(-96)
 156 00a2 82BB      		out 50-0x20,r24
 157               	.LM23:
 158 00a4 82B3      		in r24,50-0x20
 159 00a6 8F7A      		andi r24,lo8(-81)
 160 00a8 82BB      		out 50-0x20,r24
 161               	.LBB159:
 162               	.LBB160:
 163               	.LBB161:
 164               	.LBB162:
 165               	.LM24:
 166 00aa CB01      		movw r24,r22
 167               	.LVL18:
 168               	/* #APP */
 169 00ac 0197      		1: sbiw r24,1
 170 00ae 01F4      		brne 1b
 171               	/* #NOAPP */
 172               	.LBE162:
 173               	.LBE161:
 174               	.LBE160:
 175               	.LBE159:
 176               	.LM25:
 177 00b0 12BA      		out 50-0x20,__zero_reg__
 178               	.LBB163:
 179               	.LBB164:
 180               	.LBB165:
 181               	.LBB166:
 182               	.LM26:
 183 00b2 80E2      		ldi r24,lo8(20000)
 184 00b4 9EE4      		ldi r25,hi8(20000)
 185               	.LVL19:
 186 00b6 00C0      		rjmp .L139
 187               	.LVL20:
 188               	.L18:
 189               	.LBE166:
 190               	.LBE165:
 191               	.LBE164:
 192               	.LBE163:
 193               	.LM27:
 194 00b8 ECE0      		ldi r30,lo8(12)
 195 00ba EE16      		cp r14,r30
 196 00bc F104      		cpc r15,__zero_reg__
 197 00be 01F0      		breq .L20
 198 00c0 F8E0      		ldi r31,lo8(8)
 199 00c2 EF16      		cp r14,r31
 200 00c4 F104      		cpc r15,__zero_reg__
 201 00c6 01F4      		brne .L22
 202               	.L20:
 203               	.LM28:
 204 00c8 959A      		sbi 50-0x20,5
 205               	.LM29:
 206 00ca 9498      		cbi 50-0x20,4
 207               	.LBB167:
 208               	.LBB168:
 209               	.LBB169:
 210               	.LBB170:
 211               	.LM30:
 212 00cc 85E3      		ldi r24,lo8(53)
 213               	.LVL21:
 214               	/* #APP */
 215 00ce 8A95      		1: dec r24
 216 00d0 01F4      		brne 1b
 217               	/* #NOAPP */
 218               	.LBE170:
 219               	.LBE169:
 220               	.LBE168:
 221               	.LBE167:
 222               	.LM31:
 223 00d2 12BA      		out 50-0x20,__zero_reg__
 224               	.LM32:
 225 00d4 979A      		sbi 50-0x20,7
 226               	.LM33:
 227 00d6 9698      		cbi 50-0x20,6
 228 00d8 00C0      		rjmp .L141
 229               	.LVL22:
 230               	.L22:
 231               	.LM34:
 232 00da 82E0      		ldi r24,lo8(2)
 233 00dc E816      		cp r14,r24
 234 00de F104      		cpc r15,__zero_reg__
 235 00e0 01F0      		breq .L24
 236 00e2 E6E0      		ldi r30,lo8(6)
 237 00e4 EE16      		cp r14,r30
 238 00e6 F104      		cpc r15,__zero_reg__
 239 00e8 01F4      		brne .L23
 240               	.L24:
 241               	.LM35:
 242 00ea 979A      		sbi 50-0x20,7
 243               	.LM36:
 244 00ec 9698      		cbi 50-0x20,6
 245               	.LBB171:
 246               	.LBB172:
 247               	.LBB173:
 248               	.LBB174:
 249               	.LM37:
 250 00ee 85E3      		ldi r24,lo8(53)
 251               	.LVL23:
 252               	/* #APP */
 253 00f0 8A95      		1: dec r24
 254 00f2 01F4      		brne 1b
 255               	/* #NOAPP */
 256               	.LBE174:
 257               	.LBE173:
 258               	.LBE172:
 259               	.LBE171:
 260               	.LM38:
 261 00f4 12BA      		out 50-0x20,__zero_reg__
 262               	.LM39:
 263 00f6 959A      		sbi 50-0x20,5
 264               	.LM40:
 265 00f8 9498      		cbi 50-0x20,4
 266               	.LVL24:
 267               	.L141:
 268               	.LBB175:
 269               	.LBB176:
 270               	.LBB177:
 271               	.LBB178:
 272               	.LM41:
 273 00fa 8AE6      		ldi r24,lo8(106)
 274               	.LVL25:
 275               	/* #APP */
 276 00fc 8A95      		1: dec r24
 277 00fe 01F4      		brne 1b
 278               	/* #NOAPP */
 279               	.LBE178:
 280               	.LBE177:
 281               	.LBE176:
 282               	.LBE175:
 283               	.LM42:
 284 0100 12BA      		out 50-0x20,__zero_reg__
 285               	.L23:
 286               	.LM43:
 287 0102 FCE1      		ldi r31,lo8(28)
 288 0104 EF16      		cp r14,r31
 289 0106 F104      		cpc r15,__zero_reg__
 290 0108 01F0      		breq .L26
 291 010a 88E1      		ldi r24,lo8(24)
 292 010c E816      		cp r14,r24
 293 010e F104      		cpc r15,__zero_reg__
 294               	.LVL26:
 295 0110 01F4      		brne .L28
 296               	.LVL27:
 297               	.L26:
 298               	.LBB179:
 299               	.LBB180:
 300               	.LBB181:
 301               	.LBB182:
 302               	.LM44:
 303 0112 80E0      		ldi r24,lo8(0)
 304 0114 90E0      		ldi r25,hi8(0)
 305               	.LVL28:
 306               	/* #APP */
 307 0116 0197      		1: sbiw r24,1
 308 0118 01F4      		brne 1b
 309               	/* #NOAPP */
 310               	.LBE182:
 311               	.LBE181:
 312               	.LBE180:
 313               	.LBE179:
 314               	.LM45:
 315 011a 82B3      		in r24,50-0x20
 316               	.LVL29:
 317 011c 806A      		ori r24,lo8(-96)
 318 011e 82BB      		out 50-0x20,r24
 319               	.LM46:
 320 0120 82B3      		in r24,50-0x20
 321 0122 8F7A      		andi r24,lo8(-81)
 322 0124 82BB      		out 50-0x20,r24
 323               	.LBB183:
 324               	.LBB184:
 325               	.LBB185:
 326               	.LBB186:
 327               	.LM47:
 328 0126 CB01      		movw r24,r22
 329               	.LVL30:
 330               	/* #APP */
 331 0128 0197      		1: sbiw r24,1
 332 012a 01F4      		brne 1b
 333               	/* #NOAPP */
 334               	.LBE186:
 335               	.LBE185:
 336               	.LBE184:
 337               	.LBE183:
 338               	.LM48:
 339 012c 12BA      		out 50-0x20,__zero_reg__
 340 012e 95E3      		ldi r25,lo8(53)
 341               	.L29:
 342               	.LM49:
 343 0130 979A      		sbi 50-0x20,7
 344               	.LM50:
 345 0132 9698      		cbi 50-0x20,6
 346               	.LBB187:
 347               	.LBB188:
 348               	.LBB189:
 349               	.LBB190:
 350               	.LM51:
 351 0134 892F      		mov r24,r25
 352               	.LVL31:
 353               	/* #APP */
 354 0136 8A95      		1: dec r24
 355 0138 01F4      		brne 1b
 356               	/* #NOAPP */
 357               	.LBE190:
 358               	.LBE189:
 359               	.LBE188:
 360               	.LBE187:
 361               	.LM52:
 362 013a 12BA      		out 50-0x20,__zero_reg__
 363               	.LM53:
 364 013c CA99      		sbic 57-0x20,2
 365 013e 00C0      		rjmp .L29
 366               	.LM54:
 367 0140 8CE6      		ldi r24,lo8(108)
 368               	.LVL32:
 369 0142 00C0      		rjmp .L142
 370               	.L28:
 371               	.LM55:
 372 0144 E7E0      		ldi r30,lo8(7)
 373 0146 EE16      		cp r14,r30
 374 0148 F104      		cpc r15,__zero_reg__
 375 014a 01F0      		breq .L32
 376 014c F3E0      		ldi r31,lo8(3)
 377 014e EF16      		cp r14,r31
 378 0150 F104      		cpc r15,__zero_reg__
 379 0152 01F0      		breq .+2
 380 0154 00C0      		rjmp .L31
 381               	.L32:
 382               	.LBB191:
 383               	.LBB192:
 384               	.LBB193:
 385               	.LBB194:
 386               	.LM56:
 387 0156 E0E0      		ldi r30,lo8(0)
 388 0158 F0E0      		ldi r31,hi8(0)
 389 015a CF01      		movw r24,r30
 390               	.LVL33:
 391               	/* #APP */
 392 015c 0197      		1: sbiw r24,1
 393 015e 01F4      		brne 1b
 394               	/* #NOAPP */
 395               	.LBE194:
 396               	.LBE193:
 397               	.LBE192:
 398               	.LBE191:
 399               	.LM57:
 400 0160 82B3      		in r24,50-0x20
 401               	.LVL34:
 402 0162 806A      		ori r24,lo8(-96)
 403 0164 82BB      		out 50-0x20,r24
 404               	.LM58:
 405 0166 82B3      		in r24,50-0x20
 406 0168 8F7A      		andi r24,lo8(-81)
 407 016a 82BB      		out 50-0x20,r24
 408               	.LBB195:
 409               	.LBB196:
 410               	.LBB197:
 411               	.LBB198:
 412               	.LM59:
 413 016c CF01      		movw r24,r30
 414               	.LVL35:
 415               	/* #APP */
 416 016e 0197      		1: sbiw r24,1
 417 0170 01F4      		brne 1b
 418               	/* #NOAPP */
 419               	.LBE198:
 420               	.LBE197:
 421               	.LBE196:
 422               	.LBE195:
 423               	.LM60:
 424 0172 12BA      		out 50-0x20,__zero_reg__
 425               	.LBB199:
 426               	.LBB200:
 427               	.LBB201:
 428               	.LBB202:
 429               	.LM61:
 430 0174 CF01      		movw r24,r30
 431               	.LVL36:
 432               	/* #APP */
 433 0176 0197      		1: sbiw r24,1
 434 0178 01F4      		brne 1b
 435               	/* #NOAPP */
 436               	.LBE202:
 437               	.LBE201:
 438               	.LBE200:
 439               	.LBE199:
 440               	.LM62:
 441 017a C89B      		sbis 57-0x20,0
 442 017c 00C0      		rjmp .L31
 443               	.LM63:
 444 017e C99B      		sbis 57-0x20,1
 445 0180 00C0      		rjmp .L31
 446               	.LM64:
 447 0182 CA9B      		sbis 57-0x20,2
 448 0184 00C0      		rjmp .L31
 449               	.LM65:
 450 0186 CB9B      		sbis 57-0x20,3
 451 0188 00C0      		rjmp .L31
 452               	.LM66:
 453 018a CC9B      		sbis 57-0x20,4
 454 018c 00C0      		rjmp .L38
 455               	.LM67:
 456 018e 82B3      		in r24,50-0x20
 457               	.LVL37:
 458 0190 8065      		ori r24,lo8(80)
 459 0192 82BB      		out 50-0x20,r24
 460               	.LM68:
 461 0194 82B3      		in r24,50-0x20
 462 0196 8F75      		andi r24,lo8(95)
 463 0198 82BB      		out 50-0x20,r24
 464               	.LBB203:
 465               	.LBB204:
 466               	.LBB205:
 467               	.LBB206:
 468               	.LM69:
 469 019a CF01      		movw r24,r30
 470               	.LVL38:
 471               	/* #APP */
 472 019c 0197      		1: sbiw r24,1
 473 019e 01F4      		brne 1b
 474               	/* #NOAPP */
 475               	.LBE206:
 476               	.LBE205:
 477               	.LBE204:
 478               	.LBE203:
 479               	.LM70:
 480 01a0 12BA      		out 50-0x20,__zero_reg__
 481               	.LBB207:
 482               	.LBB208:
 483               	.LBB209:
 484               	.LBB210:
 485               	.LM71:
 486               	/* #APP */
 487 01a2 3197      		1: sbiw r30,1
 488 01a4 01F4      		brne 1b
 489               	/* #NOAPP */
 490               	.LBE210:
 491               	.LBE209:
 492               	.LBE208:
 493               	.LBE207:
 494               	.LM72:
 495 01a6 82B3      		in r24,50-0x20
 496               	.LVL39:
 497 01a8 8066      		ori r24,lo8(96)
 498 01aa 82BB      		out 50-0x20,r24
 499               	.LM73:
 500 01ac 82B3      		in r24,50-0x20
 501 01ae 8F76      		andi r24,lo8(111)
 502 01b0 82BB      		out 50-0x20,r24
 503               	.LBB211:
 504               	.LBB212:
 505               	.LBB213:
 506               	.LBB214:
 507               	.LM74:
 508 01b2 CB01      		movw r24,r22
 509               	.LVL40:
 510               	/* #APP */
 511 01b4 0197      		1: sbiw r24,1
 512 01b6 01F4      		brne 1b
 513               	/* #NOAPP */
 514               	.LBE214:
 515               	.LBE213:
 516               	.LBE212:
 517               	.LBE211:
 518               	.LM75:
 519 01b8 12BA      		out 50-0x20,__zero_reg__
 520 01ba 95E3      		ldi r25,lo8(53)
 521               	.L40:
 522               	.LM76:
 523 01bc 959A      		sbi 50-0x20,5
 524               	.LM77:
 525 01be 9498      		cbi 50-0x20,4
 526               	.LBB215:
 527               	.LBB216:
 528               	.LBB217:
 529               	.LBB218:
 530               	.LM78:
 531 01c0 892F      		mov r24,r25
 532               	.LVL41:
 533               	/* #APP */
 534 01c2 8A95      		1: dec r24
 535 01c4 01F4      		brne 1b
 536               	/* #NOAPP */
 537               	.LBE218:
 538               	.LBE217:
 539               	.LBE216:
 540               	.LBE215:
 541               	.LM79:
 542 01c6 12BA      		out 50-0x20,__zero_reg__
 543               	.LM80:
 544 01c8 CA99      		sbic 57-0x20,2
 545 01ca 00C0      		rjmp .L40
 546               	.LBB219:
 547               	.LBB220:
 548               	.LBB221:
 549               	.LBB222:
 550               	.LM81:
 551 01cc 80E4      		ldi r24,lo8(8000)
 552 01ce 9FE1      		ldi r25,hi8(8000)
 553               	.LVL42:
 554               	/* #APP */
 555 01d0 0197      		1: sbiw r24,1
 556 01d2 01F4      		brne 1b
 557               	/* #NOAPP */
 558               	.LBE222:
 559               	.LBE221:
 560               	.LBE220:
 561               	.LBE219:
 562               	.LM82:
 563 01d4 82E7      		ldi r24,lo8(114)
 564               	.LVL43:
 565               	.L142:
 566 01d6 8D93      		st X+,r24
 567               	.LM83:
 568 01d8 0894      		sec
 569 01da C11C      		adc r12,__zero_reg__
 570 01dc D11C      		adc r13,__zero_reg__
 571 01de 00C0      		rjmp .L31
 572               	.LVL44:
 573               	.L38:
 574               	.LM84:
 575 01e0 83E7      		ldi r24,lo8(115)
 576               	.LVL45:
 577 01e2 00C0      		rjmp .L140
 578               	.LVL46:
 579               	.L31:
 580               	.LM85:
 581 01e4 E114      		cp r14,__zero_reg__
 582 01e6 F104      		cpc r15,__zero_reg__
 583 01e8 01F0      		breq .+2
 584 01ea 00C0      		rjmp .L42
 585               	.LM86:
 586 01ec 82B3      		in r24,50-0x20
 587               	.LVL47:
 588 01ee 806A      		ori r24,lo8(-96)
 589 01f0 82BB      		out 50-0x20,r24
 590               	.LM87:
 591 01f2 82B3      		in r24,50-0x20
 592 01f4 8F7A      		andi r24,lo8(-81)
 593 01f6 82BB      		out 50-0x20,r24
 594               	.LBB223:
 595               	.LBB224:
 596               	.LBB225:
 597               	.LBB226:
 598               	.LM88:
 599 01f8 C701      		movw r24,r14
 600               	.LVL48:
 601               	/* #APP */
 602 01fa 0197      		1: sbiw r24,1
 603 01fc 01F4      		brne 1b
 604               	/* #NOAPP */
 605               	.LBE226:
 606               	.LBE225:
 607               	.LBE224:
 608               	.LBE223:
 609               	.LM89:
 610 01fe C89B      		sbis 57-0x20,0
 611 0200 00C0      		rjmp .L44
 612               	.LM90:
 613 0202 CA01      		movw r24,r20
 614               	.LVL49:
 615 0204 8F7E      		andi r24,lo8(-17)
 616 0206 00C0      		rjmp .L46
 617               	.LVL50:
 618               	.L44:
 619               	.LM91:
 620 0208 CA01      		movw r24,r20
 621               	.LVL51:
 622 020a 8061      		ori r24,lo8(16)
 623               	.L46:
 624               	.LM92:
 625 020c C99B      		sbis 57-0x20,1
 626 020e 00C0      		rjmp .L47
 627               	.LM93:
 628 0210 877F      		andi r24,lo8(-9)
 629               	.LVL52:
 630 0212 00C0      		rjmp .L49
 631               	.LVL53:
 632               	.L47:
 633               	.LM94:
 634 0214 8860      		ori r24,lo8(8)
 635               	.LVL54:
 636               	.L49:
 637               	.LM95:
 638 0216 CA9B      		sbis 57-0x20,2
 639 0218 00C0      		rjmp .L50
 640               	.LM96:
 641 021a 8B7F      		andi r24,lo8(-5)
 642               	.LVL55:
 643 021c 00C0      		rjmp .L52
 644               	.LVL56:
 645               	.L50:
 646               	.LM97:
 647 021e 8460      		ori r24,lo8(4)
 648               	.LVL57:
 649               	.L52:
 650               	.LM98:
 651 0220 CB9B      		sbis 57-0x20,3
 652 0222 00C0      		rjmp .L53
 653               	.LM99:
 654 0224 8D7F      		andi r24,lo8(-3)
 655               	.LVL58:
 656 0226 00C0      		rjmp .L55
 657               	.LVL59:
 658               	.L53:
 659               	.LM100:
 660 0228 8260      		ori r24,lo8(2)
 661               	.LVL60:
 662               	.L55:
 663               	.LM101:
 664 022a CC9B      		sbis 57-0x20,4
 665 022c 00C0      		rjmp .L56
 666               	.LM102:
 667 022e AC01      		movw r20,r24
 668 0230 4E7F      		andi r20,lo8(-2)
 669               	.LM103:
 670 0232 4115      		cp r20,__zero_reg__
 671 0234 5105      		cpc r21,__zero_reg__
 672 0236 01F4      		brne .L59
 673 0238 00C0      		rjmp .L58
 674               	.L56:
 675               	.LM104:
 676 023a AC01      		movw r20,r24
 677 023c 4160      		ori r20,lo8(1)
 678 023e 00C0      		rjmp .L59
 679               	.L58:
 680               	.LM105:
 681 0240 12BA      		out 50-0x20,__zero_reg__
 682               	.LM106:
 683 0242 AB9A      		sbi 53-0x20,3
 684               	.LBB227:
 685               	.LBB228:
 686               	.LBB229:
 687               	.LBB230:
 688               	.LM107:
 689 0244 CA01      		movw r24,r20
 690               	.LVL61:
 691               	/* #APP */
 692 0246 0197      		1: sbiw r24,1
 693 0248 01F4      		brne 1b
 694               	/* #NOAPP */
 695               	.LBE230:
 696               	.LBE229:
 697               	.LBE228:
 698               	.LBE227:
 699               	.LM108:
 700 024a AB98      		cbi 53-0x20,3
 701               	.LM109:
 702 024c 85E6      		ldi r24,lo8(101)
 703               	.LVL62:
 704 024e 8C93      		st X,r24
 705 0250 40E0      		ldi r20,lo8(0)
 706 0252 50E0      		ldi r21,hi8(0)
 707               	.LVL63:
 708 0254 60E0      		ldi r22,lo8(0)
 709 0256 70E0      		ldi r23,hi8(0)
 710               	.LVL64:
 711 0258 00C0      		rjmp .L60
 712               	.LVL65:
 713               	.L59:
 714               	.LM110:
 715 025a 82B3      		in r24,50-0x20
 716               	.LVL66:
 717 025c 8065      		ori r24,lo8(80)
 718 025e 82BB      		out 50-0x20,r24
 719               	.LM111:
 720 0260 82B3      		in r24,50-0x20
 721 0262 8F75      		andi r24,lo8(95)
 722 0264 82BB      		out 50-0x20,r24
 723               	.LBB231:
 724               	.LBB232:
 725               	.LBB233:
 726               	.LBB234:
 727               	.LM112:
 728 0266 80E0      		ldi r24,lo8(0)
 729 0268 90E0      		ldi r25,hi8(0)
 730               	.LVL67:
 731               	/* #APP */
 732 026a 0197      		1: sbiw r24,1
 733 026c 01F4      		brne 1b
 734               	/* #NOAPP */
 735               	.LBE234:
 736               	.LBE233:
 737               	.LBE232:
 738               	.LBE231:
 739               	.LM113:
 740 026e 12BA      		out 50-0x20,__zero_reg__
 741 0270 E0EA      		ldi r30,lo8(4000)
 742 0272 FFE0      		ldi r31,hi8(4000)
 743 0274 25E3      		ldi r18,lo8(53)
 744               	.L61:
 745               	.LM114:
 746 0276 979A      		sbi 50-0x20,7
 747               	.LM115:
 748 0278 82B3      		in r24,50-0x20
 749               	.LVL68:
 750 027a 8F78      		andi r24,lo8(-113)
 751 027c 82BB      		out 50-0x20,r24
 752               	.LBB235:
 753               	.LBB236:
 754               	.LBB237:
 755               	.LBB238:
 756               	.LM116:
 757 027e CF01      		movw r24,r30
 758               	.LVL69:
 759               	/* #APP */
 760 0280 0197      		1: sbiw r24,1
 761 0282 01F4      		brne 1b
 762               	/* #NOAPP */
 763               	.LBE238:
 764               	.LBE237:
 765               	.LBE236:
 766               	.LBE235:
 767               	.LM117:
 768 0284 12BA      		out 50-0x20,__zero_reg__
 769               	.LBB239:
 770               	.LBB240:
 771               	.LBB241:
 772               	.LBB242:
 773               	.LM118:
 774 0286 822F      		mov r24,r18
 775               	.LVL70:
 776               	/* #APP */
 777 0288 8A95      		1: dec r24
 778 028a 01F4      		brne 1b
 779               	/* #NOAPP */
 780               	.LBE242:
 781               	.LBE241:
 782               	.LBE240:
 783               	.LBE239:
 784               	.LM119:
 785 028c CA99      		sbic 57-0x20,2
 786 028e 00C0      		rjmp .L61
 787               	.LM120:
 788 0290 8CE6      		ldi r24,lo8(108)
 789               	.LVL71:
 790               	.L140:
 791 0292 8D93      		st X+,r24
 792               	.LM121:
 793 0294 0894      		sec
 794 0296 C11C      		adc r12,__zero_reg__
 795 0298 D11C      		adc r13,__zero_reg__
 796 029a 00C0      		rjmp .L146
 797               	.LVL72:
 798               	.L42:
 799               	.LM122:
 800 029c 8FE1      		ldi r24,lo8(31)
 801 029e E816      		cp r14,r24
 802 02a0 F104      		cpc r15,__zero_reg__
 803               	.LVL73:
 804 02a2 01F0      		breq .+2
 805 02a4 00C0      		rjmp .L146
 806               	.LM123:
 807 02a6 0F5F      		subi r16,lo8(-(1))
 808 02a8 1F4F      		sbci r17,hi8(-(1))
 809               	.LM124:
 810 02aa C801      		movw r24,r16
 811 02ac 0197      		sbiw r24,1
 812 02ae 0297      		sbiw r24,2
 813 02b0 00F4      		brsh .L64
 814               	.LM125:
 815 02b2 82B3      		in r24,50-0x20
 816 02b4 806A      		ori r24,lo8(-96)
 817 02b6 82BB      		out 50-0x20,r24
 818               	.LM126:
 819 02b8 82B3      		in r24,50-0x20
 820 02ba 8F7A      		andi r24,lo8(-81)
 821 02bc 82BB      		out 50-0x20,r24
 822               	.LBB243:
 823               	.LBB244:
 824               	.LBB245:
 825               	.LBB246:
 826               	.LM127:
 827 02be 80EA      		ldi r24,lo8(4000)
 828 02c0 9FE0      		ldi r25,hi8(4000)
 829               	.LVL74:
 830               	.L139:
 831               	.LVL75:
 832               	/* #APP */
 833 02c2 0197      		1: sbiw r24,1
 834 02c4 01F4      		brne 1b
 835               	/* #NOAPP */
 836 02c6 00C0      		rjmp .L146
 837               	.LVL76:
 838               	.L64:
 839               	.LBE246:
 840               	.LBE245:
 841               	.LBE244:
 842               	.LBE243:
 843               	.LM128:
 844 02c8 85E7      		ldi r24,lo8(117)
 845 02ca 8C93      		st X,r24
 846               	.LM129:
 847 02cc 0F5F      		subi r16,lo8(-(1))
 848 02ce 1F4F      		sbci r17,hi8(-(1))
 849 02d0 00C0      		rjmp .L146
 850               	.LVL77:
 851               	.L66:
 852               	.LBB247:
 853               	.LM130:
 854 02d2 8E01      		movw r16,r28
 855               	.LVL78:
 856 02d4 0F5F      		subi r16,lo8(-(1))
 857 02d6 1F4F      		sbci r17,hi8(-(1))
 858 02d8 F801      		movw r30,r16
 859 02da E40F      		add r30,r20
 860 02dc F51F      		adc r31,r21
 861 02de E081      		ld r30,Z
 862 02e0 DE01      		movw r26,r28
 863 02e2 1B96      		adiw r26,11
 864 02e4 E537      		cpi r30,lo8(117)
 865 02e6 01F0      		breq .L67
 866               	.LM131:
 867 02e8 A60F      		add r26,r22
 868 02ea B71F      		adc r27,r23
 869 02ec EC93      		st X,r30
 870               	.LM132:
 871 02ee 6F5F      		subi r22,lo8(-(1))
 872 02f0 7F4F      		sbci r23,hi8(-(1))
 873 02f2 00C0      		rjmp .L69
 874               	.L67:
 875               	.LM133:
 876 02f4 6150      		subi r22,lo8(-(-1))
 877 02f6 7040      		sbci r23,hi8(-(-1))
 878 02f8 A60F      		add r26,r22
 879 02fa B71F      		adc r27,r23
 880 02fc 6F5F      		subi r22,lo8(-(1))
 881 02fe 7F4F      		sbci r23,hi8(-(1))
 882 0300 8C91      		ld r24,X
 883 0302 8337      		cpi r24,lo8(115)
 884 0304 01F4      		brne .L70
 885               	.LM134:
 886 0306 82E7      		ldi r24,lo8(114)
 887 0308 8C93      		st X,r24
 888 030a 00C0      		rjmp .L69
 889               	.L70:
 890               	.LM135:
 891 030c 8C36      		cpi r24,lo8(108)
 892 030e 01F4      		brne .L69
 893               	.LM136:
 894 0310 9A01      		movw r18,r20
 895 0312 2F5F      		subi r18,lo8(-(1))
 896 0314 3F4F      		sbci r19,hi8(-(1))
 897 0316 020F      		add r16,r18
 898 0318 131F      		adc r17,r19
 899 031a F801      		movw r30,r16
 900 031c 8081      		ld r24,Z
 901 031e 8C36      		cpi r24,lo8(108)
 902 0320 01F4      		brne .L73
 903               	.LM137:
 904 0322 83E7      		ldi r24,lo8(115)
 905 0324 00C0      		rjmp .L143
 906               	.L73:
 907               	.LM138:
 908 0326 8337      		cpi r24,lo8(115)
 909 0328 01F4      		brne .L69
 910               	.LM139:
 911 032a 82E7      		ldi r24,lo8(114)
 912               	.L143:
 913 032c 8C93      		st X,r24
 914 032e A901      		movw r20,r18
 915               	.L69:
 916               	.LM140:
 917 0330 4F5F      		subi r20,lo8(-(1))
 918 0332 5F4F      		sbci r21,hi8(-(1))
 919               	.LVL79:
 920               	.L60:
 921 0334 C416      		cp r12,r20
 922 0336 D506      		cpc r13,r21
 923 0338 04F4      		brge .L66
 924               	.LBE247:
 925               	.LBB248:
 926               	.LBB249:
 927               	.LBB250:
 928               	.LBB251:
 929               	.LM141:
 930 033a 80E0      		ldi r24,lo8(0)
 931 033c 90E0      		ldi r25,hi8(0)
 932               	.LVL80:
 933               	/* #APP */
 934 033e 0197      		1: sbiw r24,1
 935 0340 01F4      		brne 1b
 936               	/* #NOAPP */
 937 0342 20E0      		ldi r18,lo8(0)
 938 0344 30E0      		ldi r19,hi8(0)
 939               	.LVL81:
 940 0346 A0E6      		ldi r26,lo8(28000)
 941 0348 BDE6      		ldi r27,hi8(28000)
 942 034a 75E3      		ldi r23,lo8(53)
 943 034c 6AE6      		ldi r22,lo8(106)
 944               	.LVL82:
 945 034e 40E0      		ldi r20,lo8(0)
 946 0350 50E0      		ldi r21,hi8(0)
 947               	.LVL83:
 948               	.LVL84:
 949               	.L147:
 950               	.LBE251:
 951               	.LBE250:
 952               	.LBE249:
 953               	.LBE248:
 954               	.LM142:
 955 0352 C89B      		sbis 57-0x20,0
 956 0354 00C0      		rjmp .L78
 957               	.LM143:
 958 0356 C701      		movw r24,r14
 959               	.LVL85:
 960 0358 8F7E      		andi r24,lo8(-17)
 961 035a 00C0      		rjmp .L80
 962               	.LVL86:
 963               	.L78:
 964               	.LM144:
 965 035c C701      		movw r24,r14
 966               	.LVL87:
 967 035e 8061      		ori r24,lo8(16)
 968               	.L80:
 969               	.LM145:
 970 0360 C99B      		sbis 57-0x20,1
 971 0362 00C0      		rjmp .L81
 972               	.LM146:
 973 0364 877F      		andi r24,lo8(-9)
 974               	.LVL88:
 975 0366 00C0      		rjmp .L83
 976               	.LVL89:
 977               	.L81:
 978               	.LM147:
 979 0368 8860      		ori r24,lo8(8)
 980               	.LVL90:
 981               	.L83:
 982               	.LM148:
 983 036a CA9B      		sbis 57-0x20,2
 984 036c 00C0      		rjmp .L84
 985               	.LM149:
 986 036e 8B7F      		andi r24,lo8(-5)
 987               	.LVL91:
 988 0370 00C0      		rjmp .L86
 989               	.LVL92:
 990               	.L84:
 991               	.LM150:
 992 0372 8460      		ori r24,lo8(4)
 993               	.LVL93:
 994               	.L86:
 995               	.LM151:
 996 0374 CB9B      		sbis 57-0x20,3
 997 0376 00C0      		rjmp .L87
 998               	.LM152:
 999 0378 8D7F      		andi r24,lo8(-3)
 1000               	.LVL94:
 1001 037a 00C0      		rjmp .L89
 1002               	.LVL95:
 1003               	.L87:
 1004               	.LM153:
 1005 037c 8260      		ori r24,lo8(2)
 1006               	.LVL96:
 1007               	.L89:
 1008               	.LM154:
 1009 037e CC9B      		sbis 57-0x20,4
 1010 0380 00C0      		rjmp .L90
 1011               	.LM155:
 1012 0382 FEEF      		ldi r31,lo8(-2)
 1013 0384 EF2E      		mov r14,r31
 1014 0386 FFEF      		ldi r31,hi8(-2)
 1015 0388 FF2E      		mov r15,r31
 1016 038a E822      		and r14,r24
 1017 038c F922      		and r15,r25
 1018 038e 00C0      		rjmp .L92
 1019               	.L90:
 1020               	.LM156:
 1021 0390 E1E0      		ldi r30,lo8(1)
 1022 0392 EE2E      		mov r14,r30
 1023 0394 F12C      		mov r15,__zero_reg__
 1024 0396 E82A      		or r14,r24
 1025 0398 F92A      		or r15,r25
 1026               	.L92:
 1027               	.LM157:
 1028 039a F4E0      		ldi r31,lo8(4)
 1029 039c EF16      		cp r14,r31
 1030 039e F104      		cpc r15,__zero_reg__
 1031 03a0 01F4      		brne .L93
 1032               	.LM158:
 1033 03a2 82B3      		in r24,50-0x20
 1034               	.LVL97:
 1035 03a4 806A      		ori r24,lo8(-96)
 1036 03a6 82BB      		out 50-0x20,r24
 1037               	.LM159:
 1038 03a8 82B3      		in r24,50-0x20
 1039 03aa 8F7A      		andi r24,lo8(-81)
 1040 03ac 82BB      		out 50-0x20,r24
 1041               	.LBB252:
 1042               	.LBB253:
 1043               	.LBB254:
 1044               	.LBB255:
 1045               	.LM160:
 1046 03ae CD01      		movw r24,r26
 1047               	.LVL98:
 1048               	/* #APP */
 1049 03b0 0197      		1: sbiw r24,1
 1050 03b2 01F4      		brne 1b
 1051               	/* #NOAPP */
 1052               	.LBE255:
 1053               	.LBE254:
 1054               	.LBE253:
 1055               	.LBE252:
 1056               	.LM161:
 1057 03b4 12BA      		out 50-0x20,__zero_reg__
 1058               	.LBB256:
 1059               	.LBB257:
 1060               	.LBB258:
 1061               	.LBB259:
 1062               	.LM162:
 1063 03b6 80E2      		ldi r24,lo8(20000)
 1064 03b8 9EE4      		ldi r25,hi8(20000)
 1065               	.LVL99:
 1066               	/* #APP */
 1067 03ba 0197      		1: sbiw r24,1
 1068 03bc 01F4      		brne 1b
 1069               	/* #NOAPP */
 1070 03be 00C0      		rjmp .L147
 1071               	.LVL100:
 1072               	.L93:
 1073               	.LBE259:
 1074               	.LBE258:
 1075               	.LBE257:
 1076               	.LBE256:
 1077               	.LM163:
 1078 03c0 8CE0      		ldi r24,lo8(12)
 1079 03c2 E816      		cp r14,r24
 1080 03c4 F104      		cpc r15,__zero_reg__
 1081               	.LVL101:
 1082 03c6 01F0      		breq .L95
 1083 03c8 E8E0      		ldi r30,lo8(8)
 1084 03ca EE16      		cp r14,r30
 1085 03cc F104      		cpc r15,__zero_reg__
 1086 03ce 01F4      		brne .L97
 1087               	.L95:
 1088               	.LM164:
 1089 03d0 959A      		sbi 50-0x20,5
 1090               	.LM165:
 1091 03d2 9498      		cbi 50-0x20,4
 1092               	.LBB260:
 1093               	.LBB261:
 1094               	.LBB262:
 1095               	.LBB263:
 1096               	.LM166:
 1097 03d4 872F      		mov r24,r23
 1098               	.LVL102:
 1099               	/* #APP */
 1100 03d6 8A95      		1: dec r24
 1101 03d8 01F4      		brne 1b
 1102               	/* #NOAPP */
 1103               	.LBE263:
 1104               	.LBE262:
 1105               	.LBE261:
 1106               	.LBE260:
 1107               	.LM167:
 1108 03da 12BA      		out 50-0x20,__zero_reg__
 1109               	.LM168:
 1110 03dc 979A      		sbi 50-0x20,7
 1111               	.LM169:
 1112 03de 9698      		cbi 50-0x20,6
 1113 03e0 00C0      		rjmp .L145
 1114               	.LVL103:
 1115               	.L97:
 1116               	.LM170:
 1117 03e2 F2E0      		ldi r31,lo8(2)
 1118 03e4 EF16      		cp r14,r31
 1119 03e6 F104      		cpc r15,__zero_reg__
 1120 03e8 01F0      		breq .L99
 1121 03ea 86E0      		ldi r24,lo8(6)
 1122 03ec E816      		cp r14,r24
 1123 03ee F104      		cpc r15,__zero_reg__
 1124 03f0 01F4      		brne .L98
 1125               	.L99:
 1126               	.LM171:
 1127 03f2 979A      		sbi 50-0x20,7
 1128               	.LM172:
 1129 03f4 9698      		cbi 50-0x20,6
 1130               	.LBB264:
 1131               	.LBB265:
 1132               	.LBB266:
 1133               	.LBB267:
 1134               	.LM173:
 1135 03f6 872F      		mov r24,r23
 1136               	.LVL104:
 1137               	/* #APP */
 1138 03f8 8A95      		1: dec r24
 1139 03fa 01F4      		brne 1b
 1140               	/* #NOAPP */
 1141               	.LBE267:
 1142               	.LBE266:
 1143               	.LBE265:
 1144               	.LBE264:
 1145               	.LM174:
 1146 03fc 12BA      		out 50-0x20,__zero_reg__
 1147               	.LM175:
 1148 03fe 959A      		sbi 50-0x20,5
 1149               	.LM176:
 1150 0400 9498      		cbi 50-0x20,4
 1151               	.LVL105:
 1152               	.L145:
 1153               	.LBB268:
 1154               	.LBB269:
 1155               	.LBB270:
 1156               	.LBB271:
 1157               	.LM177:
 1158 0402 862F      		mov r24,r22
 1159               	.LVL106:
 1160               	/* #APP */
 1161 0404 8A95      		1: dec r24
 1162 0406 01F4      		brne 1b
 1163               	/* #NOAPP */
 1164               	.LBE271:
 1165               	.LBE270:
 1166               	.LBE269:
 1167               	.LBE268:
 1168               	.LM178:
 1169 0408 12BA      		out 50-0x20,__zero_reg__
 1170               	.L98:
 1171               	.LM179:
 1172 040a ECE1      		ldi r30,lo8(28)
 1173 040c EE16      		cp r14,r30
 1174 040e F104      		cpc r15,__zero_reg__
 1175 0410 01F0      		breq .L101
 1176 0412 F8E1      		ldi r31,lo8(24)
 1177 0414 EF16      		cp r14,r31
 1178 0416 F104      		cpc r15,__zero_reg__
 1179 0418 01F0      		breq .L101
 1180 041a 87E0      		ldi r24,lo8(7)
 1181 041c E816      		cp r14,r24
 1182 041e F104      		cpc r15,__zero_reg__
 1183               	.LVL107:
 1184 0420 01F0      		breq .L101
 1185 0422 E3E0      		ldi r30,lo8(3)
 1186 0424 EE16      		cp r14,r30
 1187 0426 F104      		cpc r15,__zero_reg__
 1188 0428 01F0      		breq .L101
 1189 042a E114      		cp r14,__zero_reg__
 1190 042c F104      		cpc r15,__zero_reg__
 1191 042e 01F0      		breq .L101
 1192 0430 FFE1      		ldi r31,lo8(31)
 1193 0432 EF16      		cp r14,r31
 1194 0434 F104      		cpc r15,__zero_reg__
 1195 0436 01F0      		breq .+2
 1196 0438 00C0      		rjmp .L147
 1197               	.LVL108:
 1198               	.L101:
 1199               	.LM180:
 1200 043a 12BA      		out 50-0x20,__zero_reg__
 1201               	.LBB272:
 1202               	.LBB273:
 1203               	.LBB274:
 1204               	.LBB275:
 1205               	.LM181:
 1206 043c 80E4      		ldi r24,lo8(-25536)
 1207 043e 9CE9      		ldi r25,hi8(-25536)
 1208               	.LVL109:
 1209               	/* #APP */
 1210 0440 0197      		1: sbiw r24,1
 1211 0442 01F4      		brne 1b
 1212               	/* #NOAPP */
 1213               	.LBE275:
 1214               	.LBE274:
 1215               	.LBE273:
 1216               	.LBE272:
 1217               	.LM182:
 1218 0444 FE01      		movw r30,r28
 1219 0446 E20F      		add r30,r18
 1220 0448 F31F      		adc r31,r19
 1221 044a 8385      		ldd r24,Z+11
 1222               	.LVL110:
 1223 044c 8C36      		cpi r24,lo8(108)
 1224 044e 01F4      		brne .L107
 1225               	.LBB276:
 1226               	.LBB277:
 1227               	.LBB278:
 1228               	.LBB279:
 1229               	.LM183:
 1230 0450 CA01      		movw r24,r20
 1231               	.LVL111:
 1232               	/* #APP */
 1233 0452 0197      		1: sbiw r24,1
 1234 0454 01F4      		brne 1b
 1235               	/* #NOAPP */
 1236               	.LBE279:
 1237               	.LBE278:
 1238               	.LBE277:
 1239               	.LBE276:
 1240               	.LM184:
 1241 0456 82B3      		in r24,50-0x20
 1242               	.LVL112:
 1243 0458 806A      		ori r24,lo8(-96)
 1244 045a 82BB      		out 50-0x20,r24
 1245               	.LM185:
 1246 045c 82B3      		in r24,50-0x20
 1247 045e 8F7A      		andi r24,lo8(-81)
 1248 0460 82BB      		out 50-0x20,r24
 1249               	.LBB280:
 1250               	.LBB281:
 1251               	.LBB282:
 1252               	.LBB283:
 1253               	.LM186:
 1254 0462 CD01      		movw r24,r26
 1255               	.LVL113:
 1256               	/* #APP */
 1257 0464 0197      		1: sbiw r24,1
 1258 0466 01F4      		brne 1b
 1259               	/* #NOAPP */
 1260               	.LBE283:
 1261               	.LBE282:
 1262               	.LBE281:
 1263               	.LBE280:
 1264               	.LM187:
 1265 0468 12BA      		out 50-0x20,__zero_reg__
 1266 046a 95E3      		ldi r25,lo8(53)
 1267               	.L109:
 1268               	.LM188:
 1269 046c 979A      		sbi 50-0x20,7
 1270               	.LM189:
 1271 046e 9698      		cbi 50-0x20,6
 1272               	.LBB284:
 1273               	.LBB285:
 1274               	.LBB286:
 1275               	.LBB287:
 1276               	.LM190:
 1277 0470 892F      		mov r24,r25
 1278               	.LVL114:
 1279               	/* #APP */
 1280 0472 8A95      		1: dec r24
 1281 0474 01F4      		brne 1b
 1282               	/* #NOAPP */
 1283               	.LBE287:
 1284               	.LBE286:
 1285               	.LBE285:
 1286               	.LBE284:
 1287               	.LM191:
 1288 0476 12BA      		out 50-0x20,__zero_reg__
 1289               	.LM192:
 1290 0478 CA99      		sbic 57-0x20,2
 1291 047a 00C0      		rjmp .L109
 1292 047c 00C0      		rjmp .L144
 1293               	.LVL115:
 1294               	.L107:
 1295               	.LM193:
 1296 047e 8237      		cpi r24,lo8(114)
 1297 0480 01F4      		brne .L111
 1298               	.LM194:
 1299 0482 82B3      		in r24,50-0x20
 1300 0484 806A      		ori r24,lo8(-96)
 1301 0486 82BB      		out 50-0x20,r24
 1302               	.LM195:
 1303 0488 82B3      		in r24,50-0x20
 1304 048a 8F7A      		andi r24,lo8(-81)
 1305 048c 82BB      		out 50-0x20,r24
 1306               	.LBB288:
 1307               	.LBB289:
 1308               	.LBB290:
 1309               	.LBB291:
 1310               	.LM196:
 1311 048e CD01      		movw r24,r26
 1312               	.LVL116:
 1313               	/* #APP */
 1314 0490 0197      		1: sbiw r24,1
 1315 0492 01F4      		brne 1b
 1316               	/* #NOAPP */
 1317               	.LBE291:
 1318               	.LBE290:
 1319               	.LBE289:
 1320               	.LBE288:
 1321               	.LM197:
 1322 0494 12BA      		out 50-0x20,__zero_reg__
 1323 0496 95E3      		ldi r25,lo8(53)
 1324               	.L113:
 1325               	.LM198:
 1326 0498 959A      		sbi 50-0x20,5
 1327               	.LM199:
 1328 049a 9498      		cbi 50-0x20,4
 1329               	.LBB292:
 1330               	.LBB293:
 1331               	.LBB294:
 1332               	.LBB295:
 1333               	.LM200:
 1334 049c 892F      		mov r24,r25
 1335               	.LVL117:
 1336               	/* #APP */
 1337 049e 8A95      		1: dec r24
 1338 04a0 01F4      		brne 1b
 1339               	/* #NOAPP */
 1340               	.LBE295:
 1341               	.LBE294:
 1342               	.LBE293:
 1343               	.LBE292:
 1344               	.LM201:
 1345 04a2 12BA      		out 50-0x20,__zero_reg__
 1346               	.LM202:
 1347 04a4 CA99      		sbic 57-0x20,2
 1348 04a6 00C0      		rjmp .L113
 1349               	.LBB296:
 1350               	.LBB297:
 1351               	.LBB298:
 1352               	.LBB299:
 1353               	.LM203:
 1354 04a8 80E4      		ldi r24,lo8(8000)
 1355 04aa 9FE1      		ldi r25,hi8(8000)
 1356               	.LVL118:
 1357               	/* #APP */
 1358 04ac 0197      		1: sbiw r24,1
 1359 04ae 01F4      		brne 1b
 1360               	.LVL119:
 1361               	/* #NOAPP */
 1362               	.L144:
 1363               	.LBE299:
 1364               	.LBE298:
 1365               	.LBE297:
 1366               	.LBE296:
 1367               	.LM204:
 1368 04b0 2F5F      		subi r18,lo8(-(1))
 1369 04b2 3F4F      		sbci r19,hi8(-(1))
 1370 04b4 00C0      		rjmp .L147
 1371               	.LVL120:
 1372               	.L111:
 1373               	.LM205:
 1374 04b6 8337      		cpi r24,lo8(115)
 1375 04b8 01F4      		brne .L115
 1376               	.LM206:
 1377 04ba 82B3      		in r24,50-0x20
 1378 04bc 806A      		ori r24,lo8(-96)
 1379 04be 82BB      		out 50-0x20,r24
 1380               	.LM207:
 1381 04c0 82B3      		in r24,50-0x20
 1382 04c2 8F7A      		andi r24,lo8(-81)
 1383 04c4 82BB      		out 50-0x20,r24
 1384               	.LBB300:
 1385               	.LBB301:
 1386               	.LBB302:
 1387               	.LBB303:
 1388               	.LM208:
 1389 04c6 CA01      		movw r24,r20
 1390               	.LVL121:
 1391               	/* #APP */
 1392 04c8 0197      		1: sbiw r24,1
 1393 04ca 01F4      		brne 1b
 1394               	/* #NOAPP */
 1395               	.LBE303:
 1396               	.LBE302:
 1397               	.LBE301:
 1398               	.LBE300:
 1399               	.LM209:
 1400 04cc 12BA      		out 50-0x20,__zero_reg__
 1401 04ce 00C0      		rjmp .L144
 1402               	.LVL122:
 1403               	.L115:
 1404               	.LM210:
 1405 04d0 2536      		cpi r18,101
 1406 04d2 3105      		cpc r19,__zero_reg__
 1407 04d4 01F0      		breq .+2
 1408 04d6 00C0      		rjmp .L147
 1409               	.LM211:
 1410 04d8 12BA      		out 50-0x20,__zero_reg__
 1411               	.LM212:
 1412 04da 80E0      		ldi r24,lo8(0)
 1413 04dc 90E0      		ldi r25,hi8(0)
 1414               	/* epilogue: frame size=20 */
 1415 04de 6496      		adiw r28,20
 1416 04e0 0FB6      		in __tmp_reg__,__SREG__
 1417 04e2 F894      		cli
 1418 04e4 DEBF      		out __SP_H__,r29
 1419 04e6 0FBE      		out __SREG__,__tmp_reg__
 1420 04e8 CDBF      		out __SP_L__,r28
 1421 04ea DF91      		pop r29
 1422 04ec CF91      		pop r28
 1423 04ee 1F91      		pop r17
 1424 04f0 0F91      		pop r16
 1425 04f2 FF90      		pop r15
 1426 04f4 EF90      		pop r14
 1427 04f6 DF90      		pop r13
 1428 04f8 CF90      		pop r12
 1429 04fa 0895      		ret
 1430               	/* epilogue end (size=15) */
 1431               	/* function main size 722 (691) */
 1432               	.LFE6:
 1456               	.Letext0:
DEFINED SYMBOLS
                            *ABS*:00000000 demo.c
/var/folders/my/myPPIooLHQu5kHIPXaJY3k+++TI/-Tmp-//ccRRZG8U.s:3      *ABS*:0000003f __SREG__
/var/folders/my/myPPIooLHQu5kHIPXaJY3k+++TI/-Tmp-//ccRRZG8U.s:4      *ABS*:0000003e __SP_H__
/var/folders/my/myPPIooLHQu5kHIPXaJY3k+++TI/-Tmp-//ccRRZG8U.s:5      *ABS*:0000003d __SP_L__
/var/folders/my/myPPIooLHQu5kHIPXaJY3k+++TI/-Tmp-//ccRRZG8U.s:6      *ABS*:00000000 __tmp_reg__
/var/folders/my/myPPIooLHQu5kHIPXaJY3k+++TI/-Tmp-//ccRRZG8U.s:7      *ABS*:00000001 __zero_reg__
/var/folders/my/myPPIooLHQu5kHIPXaJY3k+++TI/-Tmp-//ccRRZG8U.s:20     .text:00000000 main

UNDEFINED SYMBOLS
__do_copy_data
__do_clear_bss
