
3pi-mazesolver.elf:     file format elf32-avr

Sections:
Idx Name          Size      VMA       LMA       File off  Algn
  0 .data         0000004a  00800100  0000267a  0000270e  2**0
                  CONTENTS, ALLOC, LOAD, DATA
  1 .text         0000267a  00000000  00000000  00000094  2**1
                  CONTENTS, ALLOC, LOAD, READONLY, CODE
  2 .bss          00000077  0080014a  0080014a  00002758  2**0
                  ALLOC
  3 .stab         00006624  00000000  00000000  00002758  2**2
                  CONTENTS, READONLY, DEBUGGING
  4 .stabstr      00008bbc  00000000  00000000  00008d7c  2**0
                  CONTENTS, READONLY, DEBUGGING
  5 .comment      00000030  00000000  00000000  00011938  2**0
                  CONTENTS, READONLY
  6 .debug_aranges 000000b0  00000000  00000000  00011968  2**0
                  CONTENTS, READONLY, DEBUGGING
  7 .debug_info   00001299  00000000  00000000  00011a18  2**0
                  CONTENTS, READONLY, DEBUGGING
  8 .debug_abbrev 0000064a  00000000  00000000  00012cb1  2**0
                  CONTENTS, READONLY, DEBUGGING
  9 .debug_line   00000daf  00000000  00000000  000132fb  2**0
                  CONTENTS, READONLY, DEBUGGING
 10 .debug_frame  000001ac  00000000  00000000  000140ac  2**2
                  CONTENTS, READONLY, DEBUGGING
 11 .debug_str    0000044b  00000000  00000000  00014258  2**0
                  CONTENTS, READONLY, DEBUGGING
 12 .debug_loc    00000658  00000000  00000000  000146a3  2**0
                  CONTENTS, READONLY, DEBUGGING
 13 .debug_ranges 00000088  00000000  00000000  00014cfb  2**0
                  CONTENTS, READONLY, DEBUGGING

Disassembly of section .text:

00000000 <__vectors>:
       0:	0c 94 57 00 	jmp	0xae	; 0xae <__dtors_end>
       4:	0c 94 7f 00 	jmp	0xfe	; 0xfe <__bad_interrupt>
       8:	0c 94 7f 00 	jmp	0xfe	; 0xfe <__bad_interrupt>
       c:	0c 94 7f 00 	jmp	0xfe	; 0xfe <__bad_interrupt>
      10:	0c 94 7f 00 	jmp	0xfe	; 0xfe <__bad_interrupt>
      14:	0c 94 7f 00 	jmp	0xfe	; 0xfe <__bad_interrupt>
      18:	0c 94 7f 00 	jmp	0xfe	; 0xfe <__bad_interrupt>
      1c:	0c 94 7f 00 	jmp	0xfe	; 0xfe <__bad_interrupt>
      20:	0c 94 7f 00 	jmp	0xfe	; 0xfe <__bad_interrupt>
      24:	0c 94 37 0b 	jmp	0x166e	; 0x166e <__vector_9>
      28:	0c 94 7f 00 	jmp	0xfe	; 0xfe <__bad_interrupt>
      2c:	0c 94 7f 00 	jmp	0xfe	; 0xfe <__bad_interrupt>
      30:	0c 94 7f 00 	jmp	0xfe	; 0xfe <__bad_interrupt>
      34:	0c 94 82 07 	jmp	0xf04	; 0xf04 <__vector_13>
      38:	0c 94 7f 00 	jmp	0xfe	; 0xfe <__bad_interrupt>
      3c:	0c 94 7f 00 	jmp	0xfe	; 0xfe <__bad_interrupt>
      40:	0c 94 7f 00 	jmp	0xfe	; 0xfe <__bad_interrupt>
      44:	0c 94 7f 00 	jmp	0xfe	; 0xfe <__bad_interrupt>
      48:	0c 94 7f 00 	jmp	0xfe	; 0xfe <__bad_interrupt>
      4c:	0c 94 7f 00 	jmp	0xfe	; 0xfe <__bad_interrupt>
      50:	0c 94 7f 00 	jmp	0xfe	; 0xfe <__bad_interrupt>
      54:	0c 94 7f 00 	jmp	0xfe	; 0xfe <__bad_interrupt>
      58:	0c 94 7f 00 	jmp	0xfe	; 0xfe <__bad_interrupt>
      5c:	0c 94 7f 00 	jmp	0xfe	; 0xfe <__bad_interrupt>
      60:	0c 94 7f 00 	jmp	0xfe	; 0xfe <__bad_interrupt>
      64:	0c 94 7f 00 	jmp	0xfe	; 0xfe <__bad_interrupt>

00000068 <__trampolines_end>:
      68:	00 00       	nop
      6a:	00 00       	nop
      6c:	00 00       	nop
      6e:	00 1f       	adc	r16, r16
      70:	1f 1f       	adc	r17, r31
      72:	1f 1f       	adc	r17, r31
      74:	1f 1f       	adc	r17, r31

00000076 <go>:
      76:	4c 31 36 20 63 64 65 67 72 65 67 34 00              L16 cdegreg4.

00000083 <welcome>:
      83:	3e 67 33 32 3e 3e 63 33 32 00                       >g32>>c32.

0000008d <demo_name_line2>:
      8d:	73 6f 6c 76 65 72 00                                solver.

00000094 <demo_name_line1>:
      94:	4d 61 7a 65 00                                      Maze.

00000099 <welcome_line2>:
      99:	33 f7 20 52 6f 62 6f 74 00                          3. Robot.

000000a2 <welcome_line1>:
      a2:	20 50 6f 6c 6f 6c 75 00                              Pololu.

000000aa <__ctors_start>:
      aa:	00 0c       	add	r0, r0

000000ac <__ctors_end>:
      ac:	01 0c       	add	r0, r1

000000ae <__dtors_end>:
      ae:	11 24       	eor	r1, r1
      b0:	1f be       	out	0x3f, r1	; 63
      b2:	cf ef       	ldi	r28, 0xFF	; 255
      b4:	d8 e0       	ldi	r29, 0x08	; 8
      b6:	de bf       	out	0x3e, r29	; 62
      b8:	cd bf       	out	0x3d, r28	; 61

000000ba <__do_copy_data>:
      ba:	11 e0       	ldi	r17, 0x01	; 1
      bc:	a0 e0       	ldi	r26, 0x00	; 0
      be:	b1 e0       	ldi	r27, 0x01	; 1
      c0:	ea e7       	ldi	r30, 0x7A	; 122
      c2:	f6 e2       	ldi	r31, 0x26	; 38
      c4:	02 c0       	rjmp	.+4      	; 0xca <__do_copy_data+0x10>
      c6:	05 90       	lpm	r0, Z+
      c8:	0d 92       	st	X+, r0
      ca:	aa 34       	cpi	r26, 0x4A	; 74
      cc:	b1 07       	cpc	r27, r17
      ce:	d9 f7       	brne	.-10     	; 0xc6 <__do_copy_data+0xc>

000000d0 <__do_clear_bss>:
      d0:	21 e0       	ldi	r18, 0x01	; 1
      d2:	aa e4       	ldi	r26, 0x4A	; 74
      d4:	b1 e0       	ldi	r27, 0x01	; 1
      d6:	01 c0       	rjmp	.+2      	; 0xda <.do_clear_bss_start>

000000d8 <.do_clear_bss_loop>:
      d8:	1d 92       	st	X+, r1

000000da <.do_clear_bss_start>:
      da:	a1 3c       	cpi	r26, 0xC1	; 193
      dc:	b2 07       	cpc	r27, r18
      de:	e1 f7       	brne	.-8      	; 0xd8 <.do_clear_bss_loop>

000000e0 <__do_global_ctors>:
      e0:	10 e0       	ldi	r17, 0x00	; 0
      e2:	cc ea       	ldi	r28, 0xAC	; 172
      e4:	d0 e0       	ldi	r29, 0x00	; 0
      e6:	04 c0       	rjmp	.+8      	; 0xf0 <__do_global_ctors+0x10>
      e8:	22 97       	sbiw	r28, 0x02	; 2
      ea:	fe 01       	movw	r30, r28
      ec:	0e 94 f6 11 	call	0x23ec	; 0x23ec <__tablejump__>
      f0:	ca 3a       	cpi	r28, 0xAA	; 170
      f2:	d1 07       	cpc	r29, r17
      f4:	c9 f7       	brne	.-14     	; 0xe8 <__do_global_ctors+0x8>
      f6:	0e 94 44 02 	call	0x488	; 0x488 <main>
      fa:	0c 94 30 13 	jmp	0x2660	; 0x2660 <__do_global_dtors>

000000fe <__bad_interrupt>:
      fe:	0c 94 00 00 	jmp	0	; 0x0 <__vectors>

00000102 <load_custom_characters>:

// This function loads custom characters into the LCD.  Up to 8
// characters can be loaded; we use them for 7 levels of a bar graph.
void load_custom_characters()
{
	lcd_load_custom_character(levels+0,0); // no offset, e.g. one bar
     102:	60 e0       	ldi	r22, 0x00	; 0
     104:	88 e6       	ldi	r24, 0x68	; 104
     106:	90 e0       	ldi	r25, 0x00	; 0
     108:	0e 94 b7 08 	call	0x116e	; 0x116e <lcd_load_custom_character>
	lcd_load_custom_character(levels+1,1); // two bars
     10c:	61 e0       	ldi	r22, 0x01	; 1
     10e:	89 e6       	ldi	r24, 0x69	; 105
     110:	90 e0       	ldi	r25, 0x00	; 0
     112:	0e 94 b7 08 	call	0x116e	; 0x116e <lcd_load_custom_character>
	lcd_load_custom_character(levels+2,2); // etc...
     116:	62 e0       	ldi	r22, 0x02	; 2
     118:	8a e6       	ldi	r24, 0x6A	; 106
     11a:	90 e0       	ldi	r25, 0x00	; 0
     11c:	0e 94 b7 08 	call	0x116e	; 0x116e <lcd_load_custom_character>
	lcd_load_custom_character(levels+3,3);
     120:	63 e0       	ldi	r22, 0x03	; 3
     122:	8b e6       	ldi	r24, 0x6B	; 107
     124:	90 e0       	ldi	r25, 0x00	; 0
     126:	0e 94 b7 08 	call	0x116e	; 0x116e <lcd_load_custom_character>
	lcd_load_custom_character(levels+4,4);
     12a:	64 e0       	ldi	r22, 0x04	; 4
     12c:	8c e6       	ldi	r24, 0x6C	; 108
     12e:	90 e0       	ldi	r25, 0x00	; 0
     130:	0e 94 b7 08 	call	0x116e	; 0x116e <lcd_load_custom_character>
	lcd_load_custom_character(levels+5,5);
     134:	65 e0       	ldi	r22, 0x05	; 5
     136:	8d e6       	ldi	r24, 0x6D	; 109
     138:	90 e0       	ldi	r25, 0x00	; 0
     13a:	0e 94 b7 08 	call	0x116e	; 0x116e <lcd_load_custom_character>
	lcd_load_custom_character(levels+6,6);
     13e:	66 e0       	ldi	r22, 0x06	; 6
     140:	8e e6       	ldi	r24, 0x6E	; 110
     142:	90 e0       	ldi	r25, 0x00	; 0
     144:	0e 94 b7 08 	call	0x116e	; 0x116e <lcd_load_custom_character>
	clear(); // the LCD must be cleared for the characters to take effect
     148:	0c 94 37 09 	jmp	0x126e	; 0x126e <clear>

0000014c <display_readings>:
}

// This function displays the sensor readings using a bar graph.
void display_readings(const unsigned int *calibrated_values)
{
     14c:	cf 92       	push	r12
     14e:	df 92       	push	r13
     150:	ef 92       	push	r14
     152:	ff 92       	push	r15
     154:	0f 93       	push	r16
     156:	1f 93       	push	r17
     158:	cf 93       	push	r28
     15a:	df 93       	push	r29
     15c:	cd b7       	in	r28, 0x3d	; 61
     15e:	de b7       	in	r29, 0x3e	; 62
     160:	2a 97       	sbiw	r28, 0x0a	; 10
     162:	0f b6       	in	r0, 0x3f	; 63
     164:	f8 94       	cli
     166:	de bf       	out	0x3e, r29	; 62
     168:	0f be       	out	0x3f, r0	; 63
     16a:	cd bf       	out	0x3d, r28	; 61
     16c:	8c 01       	movw	r16, r24
	unsigned char i;

	for(i=0;i<5;i++) {
     16e:	d1 2c       	mov	r13, r1
		// Initialize the array of characters that we will use for the
		// graph.  Using the space, an extra copy of the one-bar
		// character, and character 255 (a full black box), we get 10
		// characters in the array.
		const char display_characters[10] = {' ',0,0,1,2,3,4,5,6,255};
     170:	8a e0       	ldi	r24, 0x0A	; 10
     172:	c8 2e       	mov	r12, r24

		// The variable c will have values from 0 to 9, since
		// calibrated values are in the range of 0 to 1000, and
		// 1000/101 is 9 with integer math.
		char c = display_characters[calibrated_values[i]/101];
     174:	95 e6       	ldi	r25, 0x65	; 101
     176:	e9 2e       	mov	r14, r25
     178:	f1 2c       	mov	r15, r1
	for(i=0;i<5;i++) {
		// Initialize the array of characters that we will use for the
		// graph.  Using the space, an extra copy of the one-bar
		// character, and character 255 (a full black box), we get 10
		// characters in the array.
		const char display_characters[10] = {' ',0,0,1,2,3,4,5,6,255};
     17a:	e1 e3       	ldi	r30, 0x31	; 49
     17c:	f1 e0       	ldi	r31, 0x01	; 1
     17e:	de 01       	movw	r26, r28
     180:	11 96       	adiw	r26, 0x01	; 1
     182:	8c 2d       	mov	r24, r12
     184:	01 90       	ld	r0, Z+
     186:	0d 92       	st	X+, r0
     188:	8a 95       	dec	r24
     18a:	e1 f7       	brne	.-8      	; 0x184 <display_readings+0x38>

		// The variable c will have values from 0 to 9, since
		// calibrated values are in the range of 0 to 1000, and
		// 1000/101 is 9 with integer math.
		char c = display_characters[calibrated_values[i]/101];
     18c:	f8 01       	movw	r30, r16
     18e:	81 91       	ld	r24, Z+
     190:	91 91       	ld	r25, Z+
     192:	8f 01       	movw	r16, r30
     194:	b7 01       	movw	r22, r14
     196:	0e 94 49 11 	call	0x2292	; 0x2292 <__udivmodhi4>
     19a:	81 e0       	ldi	r24, 0x01	; 1
     19c:	90 e0       	ldi	r25, 0x00	; 0
     19e:	8c 0f       	add	r24, r28
     1a0:	9d 1f       	adc	r25, r29
     1a2:	68 0f       	add	r22, r24
     1a4:	79 1f       	adc	r23, r25

		// Display the bar graph character.
		print_character(c);
     1a6:	fb 01       	movw	r30, r22
     1a8:	80 81       	ld	r24, Z
     1aa:	0e 94 ba 08 	call	0x1174	; 0x1174 <print_character>
// This function displays the sensor readings using a bar graph.
void display_readings(const unsigned int *calibrated_values)
{
	unsigned char i;

	for(i=0;i<5;i++) {
     1ae:	d3 94       	inc	r13
     1b0:	f5 e0       	ldi	r31, 0x05	; 5
     1b2:	df 12       	cpse	r13, r31
     1b4:	e2 cf       	rjmp	.-60     	; 0x17a <display_readings+0x2e>
		char c = display_characters[calibrated_values[i]/101];

		// Display the bar graph character.
		print_character(c);
	}
}
     1b6:	2a 96       	adiw	r28, 0x0a	; 10
     1b8:	0f b6       	in	r0, 0x3f	; 63
     1ba:	f8 94       	cli
     1bc:	de bf       	out	0x3e, r29	; 62
     1be:	0f be       	out	0x3f, r0	; 63
     1c0:	cd bf       	out	0x3d, r28	; 61
     1c2:	df 91       	pop	r29
     1c4:	cf 91       	pop	r28
     1c6:	1f 91       	pop	r17
     1c8:	0f 91       	pop	r16
     1ca:	ff 90       	pop	r15
     1cc:	ef 90       	pop	r14
     1ce:	df 90       	pop	r13
     1d0:	cf 90       	pop	r12
     1d2:	08 95       	ret

000001d4 <follow_segment>:
#include <pololu/3pi.h>

void follow_segment(int max)
{
     1d4:	2f 92       	push	r2
     1d6:	3f 92       	push	r3
     1d8:	4f 92       	push	r4
     1da:	5f 92       	push	r5
     1dc:	6f 92       	push	r6
     1de:	7f 92       	push	r7
     1e0:	8f 92       	push	r8
     1e2:	9f 92       	push	r9
     1e4:	af 92       	push	r10
     1e6:	bf 92       	push	r11
     1e8:	cf 92       	push	r12
     1ea:	df 92       	push	r13
     1ec:	ef 92       	push	r14
     1ee:	ff 92       	push	r15
     1f0:	0f 93       	push	r16
     1f2:	1f 93       	push	r17
     1f4:	cf 93       	push	r28
     1f6:	df 93       	push	r29
     1f8:	cd b7       	in	r28, 0x3d	; 61
     1fa:	de b7       	in	r29, 0x3e	; 62
     1fc:	2a 97       	sbiw	r28, 0x0a	; 10
     1fe:	0f b6       	in	r0, 0x3f	; 63
     200:	f8 94       	cli
     202:	de bf       	out	0x3e, r29	; 62
     204:	0f be       	out	0x3f, r0	; 63
     206:	cd bf       	out	0x3d, r28	; 61
     208:	8c 01       	movw	r16, r24
	int last_proportional = 0;
	long integral=0;
     20a:	c1 2c       	mov	r12, r1
     20c:	d1 2c       	mov	r13, r1
     20e:	76 01       	movw	r14, r12
#include <pololu/3pi.h>

void follow_segment(int max)
{
	int last_proportional = 0;
     210:	21 2c       	mov	r2, r1
     212:	31 2c       	mov	r3, r1
		int derivative = proportional - last_proportional;
		integral += proportional;

		last_proportional = proportional;
		
		int power_difference = proportional/20 + integral/10000 + derivative*3/2;
     214:	50 e1       	ldi	r21, 0x10	; 16
     216:	45 2e       	mov	r4, r21
     218:	57 e2       	ldi	r21, 0x27	; 39
     21a:	55 2e       	mov	r5, r21
     21c:	61 2c       	mov	r6, r1
     21e:	71 2c       	mov	r7, r1

		if(power_difference > max)
			power_difference = max;
		if(power_difference < -max)
     220:	88 24       	eor	r8, r8
     222:	99 24       	eor	r9, r9
     224:	88 1a       	sub	r8, r24
     226:	99 0a       	sbc	r9, r25
	long integral=0;

	while(1)
	{
		unsigned int sensors[5];
		unsigned int position = read_line(sensors,IR_EMITTERS_ON);
     228:	61 e0       	ldi	r22, 0x01	; 1
     22a:	ce 01       	movw	r24, r28
     22c:	01 96       	adiw	r24, 0x01	; 1
     22e:	0e 94 c1 0b 	call	0x1782	; 0x1782 <read_line>

		int proportional = ((int)position) - 2000;
     232:	80 5d       	subi	r24, 0xD0	; 208
     234:	97 40       	sbci	r25, 0x07	; 7
     236:	5c 01       	movw	r10, r24

		int derivative = proportional - last_proportional;
		integral += proportional;
     238:	aa 27       	eor	r26, r26
     23a:	97 fd       	sbrc	r25, 7
     23c:	a0 95       	com	r26
     23e:	ba 2f       	mov	r27, r26
     240:	c8 0e       	add	r12, r24
     242:	d9 1e       	adc	r13, r25
     244:	ea 1e       	adc	r14, r26
     246:	fb 1e       	adc	r15, r27

		last_proportional = proportional;
		
		int power_difference = proportional/20 + integral/10000 + derivative*3/2;
     248:	c7 01       	movw	r24, r14
     24a:	b6 01       	movw	r22, r12
     24c:	a3 01       	movw	r20, r6
     24e:	92 01       	movw	r18, r4
     250:	0e 94 93 11 	call	0x2326	; 0x2326 <__divmodsi4>
		unsigned int sensors[5];
		unsigned int position = read_line(sensors,IR_EMITTERS_ON);

		int proportional = ((int)position) - 2000;

		int derivative = proportional - last_proportional;
     254:	b5 01       	movw	r22, r10
     256:	62 19       	sub	r22, r2
     258:	73 09       	sbc	r23, r3
		integral += proportional;

		last_proportional = proportional;
		
		int power_difference = proportional/20 + integral/10000 + derivative*3/2;
     25a:	cb 01       	movw	r24, r22
     25c:	88 0f       	add	r24, r24
     25e:	99 1f       	adc	r25, r25
     260:	86 0f       	add	r24, r22
     262:	97 1f       	adc	r25, r23
     264:	97 fd       	sbrc	r25, 7
     266:	01 96       	adiw	r24, 0x01	; 1
     268:	fc 01       	movw	r30, r24
     26a:	f5 95       	asr	r31
     26c:	e7 95       	ror	r30
     26e:	e2 0f       	add	r30, r18
     270:	f3 1f       	adc	r31, r19
     272:	c5 01       	movw	r24, r10
     274:	64 e1       	ldi	r22, 0x14	; 20
     276:	70 e0       	ldi	r23, 0x00	; 0
     278:	0e 94 5d 11 	call	0x22ba	; 0x22ba <__divmodhi4>
     27c:	e6 0f       	add	r30, r22
     27e:	f7 1f       	adc	r31, r23
     280:	0e 17       	cp	r16, r30
     282:	1f 07       	cpc	r17, r31
     284:	0c f4       	brge	.+2      	; 0x288 <follow_segment+0xb4>
     286:	f8 01       	movw	r30, r16
     288:	cf 01       	movw	r24, r30
     28a:	e8 15       	cp	r30, r8
     28c:	f9 05       	cpc	r31, r9
     28e:	0c f4       	brge	.+2      	; 0x292 <follow_segment+0xbe>
     290:	c4 01       	movw	r24, r8
			power_difference = max;
		if(power_difference < -max)
			power_difference = -max;
		
		if(power_difference < 0)
			set_motors(max+power_difference,max);
     292:	b8 01       	movw	r22, r16
		if(power_difference > max)
			power_difference = max;
		if(power_difference < -max)
			power_difference = -max;
		
		if(power_difference < 0)
     294:	97 ff       	sbrs	r25, 7
     296:	03 c0       	rjmp	.+6      	; 0x29e <follow_segment+0xca>
			set_motors(max+power_difference,max);
     298:	80 0f       	add	r24, r16
     29a:	91 1f       	adc	r25, r17
     29c:	03 c0       	rjmp	.+6      	; 0x2a4 <follow_segment+0xd0>
		else
			set_motors(max,max-power_difference);
     29e:	68 1b       	sub	r22, r24
     2a0:	79 0b       	sbc	r23, r25
     2a2:	c8 01       	movw	r24, r16
     2a4:	0e 94 e9 0a 	call	0x15d2	; 0x15d2 <set_motors>

		if(sensors[1] < 100 && sensors[2] < 100 && sensors[3] < 100)
     2a8:	8b 81       	ldd	r24, Y+3	; 0x03
     2aa:	9c 81       	ldd	r25, Y+4	; 0x04
     2ac:	84 36       	cpi	r24, 0x64	; 100
     2ae:	91 05       	cpc	r25, r1
     2b0:	50 f4       	brcc	.+20     	; 0x2c6 <follow_segment+0xf2>
     2b2:	8d 81       	ldd	r24, Y+5	; 0x05
     2b4:	9e 81       	ldd	r25, Y+6	; 0x06
     2b6:	84 36       	cpi	r24, 0x64	; 100
     2b8:	91 05       	cpc	r25, r1
     2ba:	28 f4       	brcc	.+10     	; 0x2c6 <follow_segment+0xf2>
     2bc:	8f 81       	ldd	r24, Y+7	; 0x07
     2be:	98 85       	ldd	r25, Y+8	; 0x08
     2c0:	84 36       	cpi	r24, 0x64	; 100
     2c2:	91 05       	cpc	r25, r1
     2c4:	60 f0       	brcs	.+24     	; 0x2de <follow_segment+0x10a>
		{
			return;
		}
		else if(sensors[0] > 200 || sensors[4] > 200)
     2c6:	89 81       	ldd	r24, Y+1	; 0x01
     2c8:	9a 81       	ldd	r25, Y+2	; 0x02
     2ca:	89 3c       	cpi	r24, 0xC9	; 201
     2cc:	91 05       	cpc	r25, r1
     2ce:	38 f4       	brcc	.+14     	; 0x2de <follow_segment+0x10a>
     2d0:	89 85       	ldd	r24, Y+9	; 0x09
     2d2:	9a 85       	ldd	r25, Y+10	; 0x0a
     2d4:	89 3c       	cpi	r24, 0xC9	; 201
     2d6:	91 05       	cpc	r25, r1
     2d8:	10 f4       	brcc	.+4      	; 0x2de <follow_segment+0x10a>
		int proportional = ((int)position) - 2000;

		int derivative = proportional - last_proportional;
		integral += proportional;

		last_proportional = proportional;
     2da:	15 01       	movw	r2, r10
		}
		else if(sensors[0] > 200 || sensors[4] > 200)
		{
			return;
		}
	}
     2dc:	a5 cf       	rjmp	.-182    	; 0x228 <follow_segment+0x54>
     2de:	2a 96       	adiw	r28, 0x0a	; 10
     2e0:	0f b6       	in	r0, 0x3f	; 63
     2e2:	f8 94       	cli
     2e4:	de bf       	out	0x3e, r29	; 62
     2e6:	0f be       	out	0x3f, r0	; 63
     2e8:	cd bf       	out	0x3d, r28	; 61
     2ea:	df 91       	pop	r29
     2ec:	cf 91       	pop	r28
     2ee:	1f 91       	pop	r17
     2f0:	0f 91       	pop	r16
     2f2:	ff 90       	pop	r15
     2f4:	ef 90       	pop	r14
     2f6:	df 90       	pop	r13
     2f8:	cf 90       	pop	r12
     2fa:	bf 90       	pop	r11
     2fc:	af 90       	pop	r10
     2fe:	9f 90       	pop	r9
     300:	8f 90       	pop	r8
     302:	7f 90       	pop	r7
     304:	6f 90       	pop	r6
     306:	5f 90       	pop	r5
     308:	4f 90       	pop	r4
     30a:	3f 90       	pop	r3
     30c:	2f 90       	pop	r2
     30e:	08 95       	ret

00000310 <initialize>:

const char welcome[] PROGMEM = ">g32>>c32";
const char go[] PROGMEM = "L16 cdegreg4";

void initialize()
{
     310:	0f 93       	push	r16
     312:	1f 93       	push	r17
     314:	cf 93       	push	r28
     316:	df 93       	push	r29
     318:	cd b7       	in	r28, 0x3d	; 61
     31a:	de b7       	in	r29, 0x3e	; 62
     31c:	2a 97       	sbiw	r28, 0x0a	; 10
     31e:	0f b6       	in	r0, 0x3f	; 63
     320:	f8 94       	cli
     322:	de bf       	out	0x3e, r29	; 62
     324:	0f be       	out	0x3f, r0	; 63
     326:	cd bf       	out	0x3d, r28	; 61
	unsigned int counter; 
	unsigned int sensors[5]; 
	
	pololu_3pi_init(2000);
     328:	80 ed       	ldi	r24, 0xD0	; 208
     32a:	97 e0       	ldi	r25, 0x07	; 7
     32c:	0e 94 fc 0b 	call	0x17f8	; 0x17f8 <pololu_3pi_init>
	load_custom_characters();
     330:	0e 94 81 00 	call	0x102	; 0x102 <load_custom_characters>
	
	print_from_program_space(welcome_line1);
     334:	82 ea       	ldi	r24, 0xA2	; 162
     336:	90 e0       	ldi	r25, 0x00	; 0
     338:	0e 94 5f 09 	call	0x12be	; 0x12be <print_from_program_space>
	lcd_goto_xy(0,1);
     33c:	61 e0       	ldi	r22, 0x01	; 1
     33e:	80 e0       	ldi	r24, 0x00	; 0
     340:	0e 94 df 09 	call	0x13be	; 0x13be <lcd_goto_xy>
	print_from_program_space(welcome_line2);
     344:	89 e9       	ldi	r24, 0x99	; 153
     346:	90 e0       	ldi	r25, 0x00	; 0
     348:	0e 94 5f 09 	call	0x12be	; 0x12be <print_from_program_space>
	play_from_program_space(welcome);
     34c:	83 e8       	ldi	r24, 0x83	; 131
     34e:	90 e0       	ldi	r25, 0x00	; 0
     350:	0e 94 f4 07 	call	0xfe8	; 0xfe8 <play_from_program_space>
	delay_ms(1000);
     354:	88 ee       	ldi	r24, 0xE8	; 232
     356:	93 e0       	ldi	r25, 0x03	; 3
     358:	0e 94 7f 0b 	call	0x16fe	; 0x16fe <delay_ms>

	clear();
     35c:	0e 94 37 09 	call	0x126e	; 0x126e <clear>
	print_from_program_space(demo_name_line1);
     360:	84 e9       	ldi	r24, 0x94	; 148
     362:	90 e0       	ldi	r25, 0x00	; 0
     364:	0e 94 5f 09 	call	0x12be	; 0x12be <print_from_program_space>
	lcd_goto_xy(0,1);
     368:	61 e0       	ldi	r22, 0x01	; 1
     36a:	80 e0       	ldi	r24, 0x00	; 0
     36c:	0e 94 df 09 	call	0x13be	; 0x13be <lcd_goto_xy>
	print_from_program_space(demo_name_line2);
     370:	8d e8       	ldi	r24, 0x8D	; 141
     372:	90 e0       	ldi	r25, 0x00	; 0
     374:	0e 94 5f 09 	call	0x12be	; 0x12be <print_from_program_space>
	delay_ms(1000);
     378:	88 ee       	ldi	r24, 0xE8	; 232
     37a:	93 e0       	ldi	r25, 0x03	; 3
		print_long(bat);
		print("mV");
		lcd_goto_xy(0,1);
		print("Press B");

		delay_ms(100);
     37c:	0e 94 7f 0b 	call	0x16fe	; 0x16fe <delay_ms>
	print_from_program_space(demo_name_line1);
	lcd_goto_xy(0,1);
	print_from_program_space(demo_name_line2);
	delay_ms(1000);

	while(!button_is_pressed(BUTTON_B))
     380:	80 e1       	ldi	r24, 0x10	; 16
     382:	0e 94 2c 0b 	call	0x1658	; 0x1658 <button_is_pressed>
     386:	81 11       	cpse	r24, r1
     388:	1b c0       	rjmp	.+54     	; 0x3c0 <initialize+0xb0>
int read_temperature_c(void);

unsigned int read_battery_millivolts_3pi(void);
static inline unsigned int read_battery_millivolts(void)
{
  return read_battery_millivolts_3pi();
     38a:	0e 94 b2 04 	call	0x964	; 0x964 <read_battery_millivolts_3pi>
     38e:	8c 01       	movw	r16, r24
	{
		int bat = read_battery_millivolts();

		clear();
     390:	0e 94 37 09 	call	0x126e	; 0x126e <clear>
		print_long(bat);
     394:	b8 01       	movw	r22, r16
     396:	88 27       	eor	r24, r24
     398:	77 fd       	sbrc	r23, 7
     39a:	80 95       	com	r24
     39c:	98 2f       	mov	r25, r24
     39e:	0e 94 bc 09 	call	0x1378	; 0x1378 <print_long>
		print("mV");
     3a2:	8b e3       	ldi	r24, 0x3B	; 59
     3a4:	91 e0       	ldi	r25, 0x01	; 1
     3a6:	0e 94 4e 09 	call	0x129c	; 0x129c <print>
		lcd_goto_xy(0,1);
     3aa:	61 e0       	ldi	r22, 0x01	; 1
     3ac:	80 e0       	ldi	r24, 0x00	; 0
     3ae:	0e 94 df 09 	call	0x13be	; 0x13be <lcd_goto_xy>
		print("Press B");
     3b2:	8e e3       	ldi	r24, 0x3E	; 62
     3b4:	91 e0       	ldi	r25, 0x01	; 1
     3b6:	0e 94 4e 09 	call	0x129c	; 0x129c <print>

		delay_ms(100);
     3ba:	84 e6       	ldi	r24, 0x64	; 100
     3bc:	90 e0       	ldi	r25, 0x00	; 0
     3be:	de cf       	rjmp	.-68     	; 0x37c <initialize+0x6c>
	}

	wait_for_button_release(BUTTON_B);
     3c0:	80 e1       	ldi	r24, 0x10	; 16
     3c2:	0e 94 18 0b 	call	0x1630	; 0x1630 <wait_for_button_release>
	delay_ms(1000);
     3c6:	88 ee       	ldi	r24, 0xE8	; 232
     3c8:	93 e0       	ldi	r25, 0x03	; 3
     3ca:	0e 94 7f 0b 	call	0x16fe	; 0x16fe <delay_ms>
     3ce:	0c ee       	ldi	r16, 0xEC	; 236
     3d0:	1f ef       	ldi	r17, 0xFF	; 255

	for(counter=0;counter<80;counter++)
	{
		if(counter < 20 || counter >= 60)
     3d2:	08 32       	cpi	r16, 0x28	; 40
     3d4:	11 05       	cpc	r17, r1
     3d6:	28 f0       	brcs	.+10     	; 0x3e2 <initialize+0xd2>
			set_motors(40,-40);
     3d8:	68 ed       	ldi	r22, 0xD8	; 216
     3da:	7f ef       	ldi	r23, 0xFF	; 255
     3dc:	88 e2       	ldi	r24, 0x28	; 40
     3de:	90 e0       	ldi	r25, 0x00	; 0
     3e0:	04 c0       	rjmp	.+8      	; 0x3ea <initialize+0xda>
		else
			set_motors(-40,40);
     3e2:	68 e2       	ldi	r22, 0x28	; 40
     3e4:	70 e0       	ldi	r23, 0x00	; 0
     3e6:	88 ed       	ldi	r24, 0xD8	; 216
     3e8:	9f ef       	ldi	r25, 0xFF	; 255
     3ea:	0e 94 e9 0a 	call	0x15d2	; 0x15d2 <set_motors>
		calibrate_line_sensors(IR_EMITTERS_ON);
     3ee:	81 e0       	ldi	r24, 0x01	; 1
     3f0:	0e 94 bb 0b 	call	0x1776	; 0x1776 <calibrate_line_sensors>
		delay_ms(20);
     3f4:	84 e1       	ldi	r24, 0x14	; 20
     3f6:	90 e0       	ldi	r25, 0x00	; 0
     3f8:	0e 94 7f 0b 	call	0x16fe	; 0x16fe <delay_ms>
     3fc:	0f 5f       	subi	r16, 0xFF	; 255
     3fe:	1f 4f       	sbci	r17, 0xFF	; 255
	}

	wait_for_button_release(BUTTON_B);
	delay_ms(1000);

	for(counter=0;counter<80;counter++)
     400:	0c 33       	cpi	r16, 0x3C	; 60
     402:	11 05       	cpc	r17, r1
     404:	31 f7       	brne	.-52     	; 0x3d2 <initialize+0xc2>
		else
			set_motors(-40,40);
		calibrate_line_sensors(IR_EMITTERS_ON);
		delay_ms(20);
	}
	set_motors(0,0);
     406:	60 e0       	ldi	r22, 0x00	; 0
     408:	70 e0       	ldi	r23, 0x00	; 0
     40a:	80 e0       	ldi	r24, 0x00	; 0
     40c:	90 e0       	ldi	r25, 0x00	; 0
     40e:	0e 94 e9 0a 	call	0x15d2	; 0x15d2 <set_motors>

	while(!button_is_pressed(BUTTON_B))
     412:	80 e1       	ldi	r24, 0x10	; 16
     414:	0e 94 2c 0b 	call	0x1658	; 0x1658 <button_is_pressed>
     418:	81 11       	cpse	r24, r1
     41a:	1a c0       	rjmp	.+52     	; 0x450 <initialize+0x140>
	{
		unsigned int position = read_line(sensors,IR_EMITTERS_ON);
     41c:	61 e0       	ldi	r22, 0x01	; 1
     41e:	ce 01       	movw	r24, r28
     420:	01 96       	adiw	r24, 0x01	; 1
     422:	0e 94 c1 0b 	call	0x1782	; 0x1782 <read_line>
     426:	8c 01       	movw	r16, r24

		clear();
     428:	0e 94 37 09 	call	0x126e	; 0x126e <clear>
		print_long(position);
     42c:	b8 01       	movw	r22, r16
     42e:	80 e0       	ldi	r24, 0x00	; 0
     430:	90 e0       	ldi	r25, 0x00	; 0
     432:	0e 94 bc 09 	call	0x1378	; 0x1378 <print_long>
		lcd_goto_xy(0,1);
     436:	61 e0       	ldi	r22, 0x01	; 1
     438:	80 e0       	ldi	r24, 0x00	; 0
     43a:	0e 94 df 09 	call	0x13be	; 0x13be <lcd_goto_xy>
		display_readings(sensors);
     43e:	ce 01       	movw	r24, r28
     440:	01 96       	adiw	r24, 0x01	; 1
     442:	0e 94 a6 00 	call	0x14c	; 0x14c <display_readings>

		delay_ms(100);
     446:	84 e6       	ldi	r24, 0x64	; 100
     448:	90 e0       	ldi	r25, 0x00	; 0
     44a:	0e 94 7f 0b 	call	0x16fe	; 0x16fe <delay_ms>
     44e:	e1 cf       	rjmp	.-62     	; 0x412 <initialize+0x102>
	}
	wait_for_button_release(BUTTON_B);
     450:	80 e1       	ldi	r24, 0x10	; 16
     452:	0e 94 18 0b 	call	0x1630	; 0x1630 <wait_for_button_release>

	clear();
     456:	0e 94 37 09 	call	0x126e	; 0x126e <clear>

	print("Go!");		
     45a:	86 e4       	ldi	r24, 0x46	; 70
     45c:	91 e0       	ldi	r25, 0x01	; 1
     45e:	0e 94 4e 09 	call	0x129c	; 0x129c <print>

	play_from_program_space(go);
     462:	86 e7       	ldi	r24, 0x76	; 118
     464:	90 e0       	ldi	r25, 0x00	; 0
     466:	0e 94 f4 07 	call	0xfe8	; 0xfe8 <play_from_program_space>
	while(is_playing());
     46a:	0e 94 e3 07 	call	0xfc6	; 0xfc6 <is_playing>
     46e:	81 11       	cpse	r24, r1
     470:	fc cf       	rjmp	.-8      	; 0x46a <initialize+0x15a>
}
     472:	2a 96       	adiw	r28, 0x0a	; 10
     474:	0f b6       	in	r0, 0x3f	; 63
     476:	f8 94       	cli
     478:	de bf       	out	0x3e, r29	; 62
     47a:	0f be       	out	0x3f, r0	; 63
     47c:	cd bf       	out	0x3d, r28	; 61
     47e:	df 91       	pop	r29
     480:	cf 91       	pop	r28
     482:	1f 91       	pop	r17
     484:	0f 91       	pop	r16
     486:	08 95       	ret

00000488 <main>:


int main()
{
	initialize();//3pi initialization
     488:	0e 94 88 01 	call	0x310	; 0x310 <initialize>
	
	maze_solve(180);
     48c:	84 eb       	ldi	r24, 0xB4	; 180
     48e:	90 e0       	ldi	r25, 0x00	; 0
     490:	0e 94 4b 02 	call	0x496	; 0x496 <maze_solve>
     494:	ff cf       	rjmp	.-2      	; 0x494 <main+0xc>

00000496 <maze_solve>:
#include "follow-segment.h"
#include "turn.h"


void maze_solve(int speed)
{
     496:	cf 93       	push	r28
     498:	df 93       	push	r29
     49a:	cd b7       	in	r28, 0x3d	; 61
     49c:	de b7       	in	r29, 0x3e	; 62
     49e:	2a 97       	sbiw	r28, 0x0a	; 10
     4a0:	0f b6       	in	r0, 0x3f	; 63
     4a2:	f8 94       	cli
     4a4:	de bf       	out	0x3e, r29	; 62
     4a6:	0f be       	out	0x3f, r0	; 63
     4a8:	cd bf       	out	0x3d, r28	; 61
     4aa:	6c 01       	movw	r12, r24
				Forward_trigged = 0;
			}
		}
		else if (sensors[4] > edge_th) //right trigging
		{
			set_motors(speed_node,speed_node);  //can be divide by a factor
     4ac:	82 e3       	ldi	r24, 0x32	; 50
     4ae:	e8 2e       	mov	r14, r24
     4b0:	f1 2c       	mov	r15, r1
	
	
temp_strt:
	while(1)
	{
		follow_segment(speed);
     4b2:	c6 01       	movw	r24, r12
     4b4:	0e 94 ea 00 	call	0x1d4	; 0x1d4 <follow_segment>
		//delay_ms(10);
		
		read_line(sensors,IR_EMITTERS_ON);
     4b8:	61 e0       	ldi	r22, 0x01	; 1
     4ba:	ce 01       	movw	r24, r28
     4bc:	01 96       	adiw	r24, 0x01	; 1
     4be:	0e 94 c1 0b 	call	0x1782	; 0x1782 <read_line>
	
		///////////////////////////////////////////////////////////////////////////////////////////////////////
		
		if(sensors[0] > edge_th)  //left trigging 
     4c2:	89 81       	ldd	r24, Y+1	; 0x01
     4c4:	9a 81       	ldd	r25, Y+2	; 0x02
     4c6:	85 3f       	cpi	r24, 0xF5	; 245
     4c8:	91 40       	sbci	r25, 0x01	; 1
     4ca:	08 f4       	brcc	.+2      	; 0x4ce <maze_solve+0x38>
     4cc:	8a c0       	rjmp	.+276    	; 0x5e2 <maze_solve+0x14c>
		{
			set_motors(speed_node,speed_node);  //can be divide by a factor
     4ce:	62 e3       	ldi	r22, 0x32	; 50
     4d0:	70 e0       	ldi	r23, 0x00	; 0
     4d2:	82 e3       	ldi	r24, 0x32	; 50
     4d4:	90 e0       	ldi	r25, 0x00	; 0
     4d6:	0e 94 e9 0a 	call	0x15d2	; 0x15d2 <set_motors>
			destination = 0;
			while ((sensors[0] > edge_th) || (sensors[4] > edge_th))
     4da:	b1 2c       	mov	r11, r1
		///////////////////////////////////////////////////////////////////////////////////////////////////////
		
		if(sensors[0] > edge_th)  //left trigging 
		{
			set_motors(speed_node,speed_node);  //can be divide by a factor
			destination = 0;
     4dc:	00 e0       	ldi	r16, 0x00	; 0
     4de:	10 e0       	ldi	r17, 0x00	; 0
			while ((sensors[0] > edge_th) || (sensors[4] > edge_th))
     4e0:	89 81       	ldd	r24, Y+1	; 0x01
     4e2:	9a 81       	ldd	r25, Y+2	; 0x02
			{
				read_line(sensors,IR_EMITTERS_ON);
     4e4:	61 e0       	ldi	r22, 0x01	; 1
		
		if(sensors[0] > edge_th)  //left trigging 
		{
			set_motors(speed_node,speed_node);  //can be divide by a factor
			destination = 0;
			while ((sensors[0] > edge_th) || (sensors[4] > edge_th))
     4e6:	85 3f       	cpi	r24, 0xF5	; 245
     4e8:	91 40       	sbci	r25, 0x01	; 1
     4ea:	48 f1       	brcs	.+82     	; 0x53e <maze_solve+0xa8>
			{
				read_line(sensors,IR_EMITTERS_ON);
     4ec:	ce 01       	movw	r24, r28
     4ee:	01 96       	adiw	r24, 0x01	; 1
     4f0:	0e 94 c1 0b 	call	0x1782	; 0x1782 <read_line>
void time_reset(void);

// This is inline for efficiency:
static inline void delay_us(unsigned int microseconds)
{
  __asm__ volatile (
     4f4:	c7 01       	movw	r24, r14
     4f6:	6f 93       	push	r22
     4f8:	64 e0       	ldi	r22, 0x04	; 4
     4fa:	6a 95       	dec	r22
     4fc:	f1 f7       	brne	.-4      	; 0x4fa <maze_solve+0x64>
     4fe:	6f 91       	pop	r22
     500:	01 97       	sbiw	r24, 0x01	; 1
     502:	c9 f7       	brne	.-14     	; 0x4f6 <maze_solve+0x60>
				delay_us(50);
				if ((sensors[4] > edge_th) && (Right_trigged == 0))
     504:	89 85       	ldd	r24, Y+9	; 0x09
     506:	9a 85       	ldd	r25, Y+10	; 0x0a
     508:	85 3f       	cpi	r24, 0xF5	; 245
     50a:	41 e0       	ldi	r20, 0x01	; 1
     50c:	94 07       	cpc	r25, r20
     50e:	10 f0       	brcs	.+4      	; 0x514 <maze_solve+0x7e>
				{
					Right_trigged=1;
     510:	bb 24       	eor	r11, r11
     512:	b3 94       	inc	r11
				}
				if ((sensors[0] > edge_th) && (sensors[4] > edge_th))
     514:	29 81       	ldd	r18, Y+1	; 0x01
     516:	3a 81       	ldd	r19, Y+2	; 0x02
     518:	25 3f       	cpi	r18, 0xF5	; 245
     51a:	31 40       	sbci	r19, 0x01	; 1
     51c:	08 f3       	brcs	.-62     	; 0x4e0 <maze_solve+0x4a>
     51e:	85 3f       	cpi	r24, 0xF5	; 245
     520:	91 40       	sbci	r25, 0x01	; 1
     522:	f0 f2       	brcs	.-68     	; 0x4e0 <maze_solve+0x4a>
				{
					destination = destination + 1;
     524:	0f 5f       	subi	r16, 0xFF	; 255
     526:	1f 4f       	sbci	r17, 0xFF	; 255
					if (destination > 5000)   // destination triggering
     528:	09 38       	cpi	r16, 0x89	; 137
     52a:	43 e1       	ldi	r20, 0x13	; 19
     52c:	14 07       	cpc	r17, r20
     52e:	c0 f2       	brcs	.-80     	; 0x4e0 <maze_solve+0x4a>
					{
						destination = 0x00;
						set_motors(0,0);
     530:	60 e0       	ldi	r22, 0x00	; 0
     532:	70 e0       	ldi	r23, 0x00	; 0
     534:	80 e0       	ldi	r24, 0x00	; 0
     536:	90 e0       	ldi	r25, 0x00	; 0
     538:	0e 94 e9 0a 	call	0x15d2	; 0x15d2 <set_motors>
     53c:	ff cf       	rjmp	.-2      	; 0x53c <maze_solve+0xa6>
		
		if(sensors[0] > edge_th)  //left trigging 
		{
			set_motors(speed_node,speed_node);  //can be divide by a factor
			destination = 0;
			while ((sensors[0] > edge_th) || (sensors[4] > edge_th))
     53e:	89 85       	ldd	r24, Y+9	; 0x09
     540:	9a 85       	ldd	r25, Y+10	; 0x0a
     542:	85 3f       	cpi	r24, 0xF5	; 245
     544:	91 40       	sbci	r25, 0x01	; 1
     546:	90 f6       	brcc	.-92     	; 0x4ec <maze_solve+0x56>
						//goto solv_maze;
					}
				}
			}
			//delay_ms(20);  //delay can be changed  //******************************************************
			read_line(sensors,IR_EMITTERS_ON);
     548:	ce 01       	movw	r24, r28
     54a:	01 96       	adiw	r24, 0x01	; 1
     54c:	0e 94 c1 0b 	call	0x1782	; 0x1782 <read_line>
			if (sensors[2] > line_th)
     550:	0d 81       	ldd	r16, Y+5	; 0x05
     552:	1e 81       	ldd	r17, Y+6	; 0x06
			{
				Forward_trigged = 1;
			}
			//temporary pgm
			set_motors(0,0);
     554:	60 e0       	ldi	r22, 0x00	; 0
     556:	70 e0       	ldi	r23, 0x00	; 0
     558:	80 e0       	ldi	r24, 0x00	; 0
     55a:	90 e0       	ldi	r25, 0x00	; 0
     55c:	0e 94 e9 0a 	call	0x15d2	; 0x15d2 <set_motors>
			delay_ms(zero_time);
     560:	84 e1       	ldi	r24, 0x14	; 20
     562:	90 e0       	ldi	r25, 0x00	; 0
     564:	0e 94 7f 0b 	call	0x16fe	; 0x16fe <delay_ms>
			set_motors(speed_break,speed_break);
     568:	6a e1       	ldi	r22, 0x1A	; 26
     56a:	7f ef       	ldi	r23, 0xFF	; 255
     56c:	8a e1       	ldi	r24, 0x1A	; 26
     56e:	9f ef       	ldi	r25, 0xFF	; 255
     570:	0e 94 e9 0a 	call	0x15d2	; 0x15d2 <set_motors>
			delay_ms(break_time);
     574:	8a e0       	ldi	r24, 0x0A	; 10
     576:	90 e0       	ldi	r25, 0x00	; 0
     578:	0e 94 7f 0b 	call	0x16fe	; 0x16fe <delay_ms>
			set_motors(0,0);
     57c:	60 e0       	ldi	r22, 0x00	; 0
     57e:	70 e0       	ldi	r23, 0x00	; 0
     580:	80 e0       	ldi	r24, 0x00	; 0
     582:	90 e0       	ldi	r25, 0x00	; 0
     584:	0e 94 e9 0a 	call	0x15d2	; 0x15d2 <set_motors>
			clear();
     588:	0e 94 37 09 	call	0x126e	; 0x126e <clear>
			lcd_goto_xy(0,1);
     58c:	61 e0       	ldi	r22, 0x01	; 1
     58e:	80 e0       	ldi	r24, 0x00	; 0
     590:	0e 94 df 09 	call	0x13be	; 0x13be <lcd_goto_xy>
			print_character('1');
     594:	81 e3       	ldi	r24, 0x31	; 49
     596:	0e 94 ba 08 	call	0x1174	; 0x1174 <print_character>
			lcd_goto_xy(1,1);
     59a:	61 e0       	ldi	r22, 0x01	; 1
     59c:	81 e0       	ldi	r24, 0x01	; 1
     59e:	0e 94 df 09 	call	0x13be	; 0x13be <lcd_goto_xy>
			if (Forward_trigged) print_character('1');
     5a2:	0d 32       	cpi	r16, 0x2D	; 45
     5a4:	11 40       	sbci	r17, 0x01	; 1
     5a6:	10 f0       	brcs	.+4      	; 0x5ac <maze_solve+0x116>
     5a8:	81 e3       	ldi	r24, 0x31	; 49
     5aa:	01 c0       	rjmp	.+2      	; 0x5ae <maze_solve+0x118>
			else print_character('0');
     5ac:	80 e3       	ldi	r24, 0x30	; 48
     5ae:	0e 94 ba 08 	call	0x1174	; 0x1174 <print_character>
			lcd_goto_xy(2,1);
     5b2:	61 e0       	ldi	r22, 0x01	; 1
     5b4:	82 e0       	ldi	r24, 0x02	; 2
     5b6:	0e 94 df 09 	call	0x13be	; 0x13be <lcd_goto_xy>
			if (Right_trigged) print_character('1');
     5ba:	bb 20       	and	r11, r11
     5bc:	11 f0       	breq	.+4      	; 0x5c2 <maze_solve+0x12c>
     5be:	81 e3       	ldi	r24, 0x31	; 49
     5c0:	01 c0       	rjmp	.+2      	; 0x5c4 <maze_solve+0x12e>
			else print_character('0');
     5c2:	80 e3       	ldi	r24, 0x30	; 48
     5c4:	0e 94 ba 08 	call	0x1174	; 0x1174 <print_character>
			
			//set_motors(-speed,-speed);
			//delay_ms(10);
			
			while(!button_is_pressed(BUTTON_B));
     5c8:	80 e1       	ldi	r24, 0x10	; 16
     5ca:	0e 94 2c 0b 	call	0x1658	; 0x1658 <button_is_pressed>
     5ce:	88 23       	and	r24, r24
     5d0:	d9 f3       	breq	.-10     	; 0x5c8 <maze_solve+0x132>
			wait_for_button_release(BUTTON_B);
     5d2:	80 e1       	ldi	r24, 0x10	; 16
     5d4:	0e 94 18 0b 	call	0x1630	; 0x1630 <wait_for_button_release>
			Right_trigged = 0;
			Forward_trigged = 0;
			delay_ms(1000);
     5d8:	88 ee       	ldi	r24, 0xE8	; 232
     5da:	93 e0       	ldi	r25, 0x03	; 3
     5dc:	0e 94 7f 0b 	call	0x16fe	; 0x16fe <delay_ms>
			goto temp_strt;
     5e0:	68 cf       	rjmp	.-304    	; 0x4b2 <maze_solve+0x1c>
				turn('L',speed);
				Right_trigged = 0;
				Forward_trigged = 0;
			}
		}
		else if (sensors[4] > edge_th) //right trigging
     5e2:	89 85       	ldd	r24, Y+9	; 0x09
     5e4:	9a 85       	ldd	r25, Y+10	; 0x0a
     5e6:	85 3f       	cpi	r24, 0xF5	; 245
     5e8:	91 40       	sbci	r25, 0x01	; 1
     5ea:	08 f4       	brcc	.+2      	; 0x5ee <maze_solve+0x158>
     5ec:	6d c0       	rjmp	.+218    	; 0x6c8 <maze_solve+0x232>
		{
			set_motors(speed_node,speed_node);  //can be divide by a factor
     5ee:	62 e3       	ldi	r22, 0x32	; 50
     5f0:	70 e0       	ldi	r23, 0x00	; 0
     5f2:	82 e3       	ldi	r24, 0x32	; 50
     5f4:	90 e0       	ldi	r25, 0x00	; 0
     5f6:	0e 94 e9 0a 	call	0x15d2	; 0x15d2 <set_motors>
			destination = 0;
			while ((sensors[0] > edge_th) || (sensors[4] > edge_th))
     5fa:	b1 2c       	mov	r11, r1
			}
		}
		else if (sensors[4] > edge_th) //right trigging
		{
			set_motors(speed_node,speed_node);  //can be divide by a factor
			destination = 0;
     5fc:	00 e0       	ldi	r16, 0x00	; 0
     5fe:	10 e0       	ldi	r17, 0x00	; 0
			while ((sensors[0] > edge_th) || (sensors[4] > edge_th))
     600:	89 81       	ldd	r24, Y+1	; 0x01
     602:	9a 81       	ldd	r25, Y+2	; 0x02
			{
				read_line(sensors,IR_EMITTERS_ON);
     604:	61 e0       	ldi	r22, 0x01	; 1
		}
		else if (sensors[4] > edge_th) //right trigging
		{
			set_motors(speed_node,speed_node);  //can be divide by a factor
			destination = 0;
			while ((sensors[0] > edge_th) || (sensors[4] > edge_th))
     606:	85 3f       	cpi	r24, 0xF5	; 245
     608:	91 40       	sbci	r25, 0x01	; 1
     60a:	98 f0       	brcs	.+38     	; 0x632 <maze_solve+0x19c>
			{
				read_line(sensors,IR_EMITTERS_ON);
     60c:	ce 01       	movw	r24, r28
     60e:	01 96       	adiw	r24, 0x01	; 1
     610:	0e 94 c1 0b 	call	0x1782	; 0x1782 <read_line>
     614:	f7 01       	movw	r30, r14
     616:	6f 93       	push	r22
     618:	64 e0       	ldi	r22, 0x04	; 4
     61a:	6a 95       	dec	r22
     61c:	f1 f7       	brne	.-4      	; 0x61a <maze_solve+0x184>
     61e:	6f 91       	pop	r22
     620:	31 97       	sbiw	r30, 0x01	; 1
     622:	c9 f7       	brne	.-14     	; 0x616 <maze_solve+0x180>
				delay_us(50);
				if ((sensors[0] > edge_th) && (Left_trigged == 0))
     624:	89 81       	ldd	r24, Y+1	; 0x01
     626:	9a 81       	ldd	r25, Y+2	; 0x02
     628:	85 3f       	cpi	r24, 0xF5	; 245
     62a:	91 40       	sbci	r25, 0x01	; 1
     62c:	08 f0       	brcs	.+2      	; 0x630 <maze_solve+0x19a>
     62e:	95 c0       	rjmp	.+298    	; 0x75a <maze_solve+0x2c4>
     630:	e7 cf       	rjmp	.-50     	; 0x600 <maze_solve+0x16a>
		}
		else if (sensors[4] > edge_th) //right trigging
		{
			set_motors(speed_node,speed_node);  //can be divide by a factor
			destination = 0;
			while ((sensors[0] > edge_th) || (sensors[4] > edge_th))
     632:	89 85       	ldd	r24, Y+9	; 0x09
     634:	9a 85       	ldd	r25, Y+10	; 0x0a
     636:	85 3f       	cpi	r24, 0xF5	; 245
     638:	91 40       	sbci	r25, 0x01	; 1
     63a:	40 f7       	brcc	.-48     	; 0x60c <maze_solve+0x176>
						//goto solv_maze;
					}
				}
			}
			//delay_ms(20);  //delay can be changed  //******************************************************
			read_line(sensors,IR_EMITTERS_ON);
     63c:	ce 01       	movw	r24, r28
     63e:	01 96       	adiw	r24, 0x01	; 1
     640:	0e 94 c1 0b 	call	0x1782	; 0x1782 <read_line>
			if (sensors[2] > line_th)
     644:	0d 81       	ldd	r16, Y+5	; 0x05
     646:	1e 81       	ldd	r17, Y+6	; 0x06
			{
				Forward_trigged = 1;
			}
			//temporary pgm
			set_motors(0,0);
     648:	60 e0       	ldi	r22, 0x00	; 0
     64a:	70 e0       	ldi	r23, 0x00	; 0
     64c:	80 e0       	ldi	r24, 0x00	; 0
     64e:	90 e0       	ldi	r25, 0x00	; 0
     650:	0e 94 e9 0a 	call	0x15d2	; 0x15d2 <set_motors>
			delay_ms(zero_time);
     654:	84 e1       	ldi	r24, 0x14	; 20
     656:	90 e0       	ldi	r25, 0x00	; 0
     658:	0e 94 7f 0b 	call	0x16fe	; 0x16fe <delay_ms>
			set_motors(speed_break,speed_break);
     65c:	6a e1       	ldi	r22, 0x1A	; 26
     65e:	7f ef       	ldi	r23, 0xFF	; 255
     660:	8a e1       	ldi	r24, 0x1A	; 26
     662:	9f ef       	ldi	r25, 0xFF	; 255
     664:	0e 94 e9 0a 	call	0x15d2	; 0x15d2 <set_motors>
			delay_ms(break_time);
     668:	8a e0       	ldi	r24, 0x0A	; 10
     66a:	90 e0       	ldi	r25, 0x00	; 0
     66c:	0e 94 7f 0b 	call	0x16fe	; 0x16fe <delay_ms>
			set_motors(0,0);
     670:	60 e0       	ldi	r22, 0x00	; 0
     672:	70 e0       	ldi	r23, 0x00	; 0
     674:	80 e0       	ldi	r24, 0x00	; 0
     676:	90 e0       	ldi	r25, 0x00	; 0
     678:	0e 94 e9 0a 	call	0x15d2	; 0x15d2 <set_motors>
			clear();
     67c:	0e 94 37 09 	call	0x126e	; 0x126e <clear>
			lcd_goto_xy(0,1);
     680:	61 e0       	ldi	r22, 0x01	; 1
     682:	80 e0       	ldi	r24, 0x00	; 0
     684:	0e 94 df 09 	call	0x13be	; 0x13be <lcd_goto_xy>
			if (Left_trigged) print_character('1');
     688:	bb 20       	and	r11, r11
     68a:	11 f0       	breq	.+4      	; 0x690 <maze_solve+0x1fa>
     68c:	81 e3       	ldi	r24, 0x31	; 49
     68e:	01 c0       	rjmp	.+2      	; 0x692 <maze_solve+0x1fc>
			else print_character('0');
     690:	80 e3       	ldi	r24, 0x30	; 48
     692:	0e 94 ba 08 	call	0x1174	; 0x1174 <print_character>
			lcd_goto_xy(1,1);
     696:	61 e0       	ldi	r22, 0x01	; 1
     698:	81 e0       	ldi	r24, 0x01	; 1
     69a:	0e 94 df 09 	call	0x13be	; 0x13be <lcd_goto_xy>
			if (Forward_trigged) print_character('1');
     69e:	0d 32       	cpi	r16, 0x2D	; 45
     6a0:	11 40       	sbci	r17, 0x01	; 1
     6a2:	10 f0       	brcs	.+4      	; 0x6a8 <maze_solve+0x212>
     6a4:	81 e3       	ldi	r24, 0x31	; 49
     6a6:	01 c0       	rjmp	.+2      	; 0x6aa <maze_solve+0x214>
			else print_character('0');
     6a8:	80 e3       	ldi	r24, 0x30	; 48
     6aa:	0e 94 ba 08 	call	0x1174	; 0x1174 <print_character>
			lcd_goto_xy(2,1);
     6ae:	61 e0       	ldi	r22, 0x01	; 1
     6b0:	82 e0       	ldi	r24, 0x02	; 2
     6b2:	0e 94 df 09 	call	0x13be	; 0x13be <lcd_goto_xy>
			print_character('1');
     6b6:	81 e3       	ldi	r24, 0x31	; 49
     6b8:	0e 94 ba 08 	call	0x1174	; 0x1174 <print_character>
			
			//set_motors(-speed,-speed);
			//delay_ms(10);
			
			while(!button_is_pressed(BUTTON_B));
     6bc:	80 e1       	ldi	r24, 0x10	; 16
     6be:	0e 94 2c 0b 	call	0x1658	; 0x1658 <button_is_pressed>
     6c2:	88 23       	and	r24, r24
     6c4:	d9 f3       	breq	.-10     	; 0x6bc <maze_solve+0x226>
     6c6:	85 cf       	rjmp	.-246    	; 0x5d2 <maze_solve+0x13c>
				turn('L',speed);
				Left_trigged = 0;
				Forward_trigged = 0;
			}
		}
		else if ((sensors[1] < (line_th)) && (sensors[2] < (line_th)) && (sensors[3] < (line_th)))//-100
     6c8:	8b 81       	ldd	r24, Y+3	; 0x03
     6ca:	9c 81       	ldd	r25, Y+4	; 0x04
     6cc:	8c 32       	cpi	r24, 0x2C	; 44
     6ce:	91 40       	sbci	r25, 0x01	; 1
     6d0:	08 f0       	brcs	.+2      	; 0x6d4 <maze_solve+0x23e>
     6d2:	ef ce       	rjmp	.-546    	; 0x4b2 <maze_solve+0x1c>
     6d4:	8d 81       	ldd	r24, Y+5	; 0x05
     6d6:	9e 81       	ldd	r25, Y+6	; 0x06
     6d8:	8c 32       	cpi	r24, 0x2C	; 44
     6da:	91 40       	sbci	r25, 0x01	; 1
     6dc:	08 f0       	brcs	.+2      	; 0x6e0 <maze_solve+0x24a>
     6de:	e9 ce       	rjmp	.-558    	; 0x4b2 <maze_solve+0x1c>
     6e0:	8f 81       	ldd	r24, Y+7	; 0x07
     6e2:	98 85       	ldd	r25, Y+8	; 0x08
     6e4:	8c 32       	cpi	r24, 0x2C	; 44
     6e6:	91 40       	sbci	r25, 0x01	; 1
     6e8:	08 f0       	brcs	.+2      	; 0x6ec <maze_solve+0x256>
     6ea:	e3 ce       	rjmp	.-570    	; 0x4b2 <maze_solve+0x1c>
		{
			set_motors(0,0);
     6ec:	60 e0       	ldi	r22, 0x00	; 0
     6ee:	70 e0       	ldi	r23, 0x00	; 0
     6f0:	80 e0       	ldi	r24, 0x00	; 0
     6f2:	90 e0       	ldi	r25, 0x00	; 0
     6f4:	0e 94 e9 0a 	call	0x15d2	; 0x15d2 <set_motors>
			delay_ms(zero_time);
     6f8:	84 e1       	ldi	r24, 0x14	; 20
     6fa:	90 e0       	ldi	r25, 0x00	; 0
     6fc:	0e 94 7f 0b 	call	0x16fe	; 0x16fe <delay_ms>
			set_motors(speed_break,speed_break);
     700:	6a e1       	ldi	r22, 0x1A	; 26
     702:	7f ef       	ldi	r23, 0xFF	; 255
     704:	8a e1       	ldi	r24, 0x1A	; 26
     706:	9f ef       	ldi	r25, 0xFF	; 255
     708:	0e 94 e9 0a 	call	0x15d2	; 0x15d2 <set_motors>
			delay_ms(break_time);
     70c:	8a e0       	ldi	r24, 0x0A	; 10
     70e:	90 e0       	ldi	r25, 0x00	; 0
     710:	0e 94 7f 0b 	call	0x16fe	; 0x16fe <delay_ms>
			set_motors(0,0);
     714:	60 e0       	ldi	r22, 0x00	; 0
     716:	70 e0       	ldi	r23, 0x00	; 0
     718:	80 e0       	ldi	r24, 0x00	; 0
     71a:	90 e0       	ldi	r25, 0x00	; 0
     71c:	0e 94 e9 0a 	call	0x15d2	; 0x15d2 <set_motors>
			clear();
     720:	0e 94 37 09 	call	0x126e	; 0x126e <clear>
			lcd_goto_xy(0,1);
     724:	61 e0       	ldi	r22, 0x01	; 1
     726:	80 e0       	ldi	r24, 0x00	; 0
     728:	0e 94 df 09 	call	0x13be	; 0x13be <lcd_goto_xy>
			print_character('0');
     72c:	80 e3       	ldi	r24, 0x30	; 48
     72e:	0e 94 ba 08 	call	0x1174	; 0x1174 <print_character>
			lcd_goto_xy(1,1);
     732:	61 e0       	ldi	r22, 0x01	; 1
     734:	81 e0       	ldi	r24, 0x01	; 1
     736:	0e 94 df 09 	call	0x13be	; 0x13be <lcd_goto_xy>
			print_character('0');
     73a:	80 e3       	ldi	r24, 0x30	; 48
     73c:	0e 94 ba 08 	call	0x1174	; 0x1174 <print_character>
			lcd_goto_xy(2,1);
     740:	61 e0       	ldi	r22, 0x01	; 1
     742:	82 e0       	ldi	r24, 0x02	; 2
     744:	0e 94 df 09 	call	0x13be	; 0x13be <lcd_goto_xy>
			print_character('0');
     748:	80 e3       	ldi	r24, 0x30	; 48
     74a:	0e 94 ba 08 	call	0x1174	; 0x1174 <print_character>
			
			while(!button_is_pressed(BUTTON_B));
     74e:	80 e1       	ldi	r24, 0x10	; 16
     750:	0e 94 2c 0b 	call	0x1658	; 0x1658 <button_is_pressed>
     754:	88 23       	and	r24, r24
     756:	d9 f3       	breq	.-10     	; 0x74e <maze_solve+0x2b8>
     758:	3c cf       	rjmp	.-392    	; 0x5d2 <maze_solve+0x13c>
				delay_us(50);
				if ((sensors[0] > edge_th) && (Left_trigged == 0))
				{
					Left_trigged=1;
				}
				if ((sensors[0] > edge_th) && (sensors[4] > edge_th))
     75a:	89 85       	ldd	r24, Y+9	; 0x09
     75c:	9a 85       	ldd	r25, Y+10	; 0x0a
     75e:	85 3f       	cpi	r24, 0xF5	; 245
     760:	91 40       	sbci	r25, 0x01	; 1
     762:	68 f0       	brcs	.+26     	; 0x77e <maze_solve+0x2e8>
				{
					destination = destination + 1;
     764:	0f 5f       	subi	r16, 0xFF	; 255
     766:	1f 4f       	sbci	r17, 0xFF	; 255
					if (destination > 5000)   // destination triggering
     768:	09 38       	cpi	r16, 0x89	; 137
     76a:	83 e1       	ldi	r24, 0x13	; 19
     76c:	18 07       	cpc	r17, r24
     76e:	38 f0       	brcs	.+14     	; 0x77e <maze_solve+0x2e8>
					{
						destination = 0x00;
						set_motors(0,0);
     770:	60 e0       	ldi	r22, 0x00	; 0
     772:	70 e0       	ldi	r23, 0x00	; 0
     774:	80 e0       	ldi	r24, 0x00	; 0
     776:	90 e0       	ldi	r25, 0x00	; 0
     778:	0e 94 e9 0a 	call	0x15d2	; 0x15d2 <set_motors>
     77c:	ff cf       	rjmp	.-2      	; 0x77c <maze_solve+0x2e6>
			{
				read_line(sensors,IR_EMITTERS_ON);
				delay_us(50);
				if ((sensors[0] > edge_th) && (Left_trigged == 0))
				{
					Left_trigged=1;
     77e:	bb 24       	eor	r11, r11
     780:	b3 94       	inc	r11
     782:	3e cf       	rjmp	.-388    	; 0x600 <maze_solve+0x16a>

00000784 <_ZN15OrangutanAnalog7setModeEh>:
     784:	88 23       	and	r24, r24
     786:	21 f4       	brne	.+8      	; 0x790 <_ZN15OrangutanAnalog7setModeEh+0xc>
     788:	80 91 7c 00 	lds	r24, 0x007C
     78c:	8f 7d       	andi	r24, 0xDF	; 223
     78e:	03 c0       	rjmp	.+6      	; 0x796 <_ZN15OrangutanAnalog7setModeEh+0x12>
     790:	80 91 7c 00 	lds	r24, 0x007C
     794:	80 62       	ori	r24, 0x20	; 32
     796:	80 93 7c 00 	sts	0x007C, r24
     79a:	08 95       	ret

0000079c <_ZN15OrangutanAnalog7getModeEv>:
     79c:	80 91 7c 00 	lds	r24, 0x007C
     7a0:	90 e0       	ldi	r25, 0x00	; 0
     7a2:	25 e0       	ldi	r18, 0x05	; 5
     7a4:	95 95       	asr	r25
     7a6:	87 95       	ror	r24
     7a8:	2a 95       	dec	r18
     7aa:	e1 f7       	brne	.-8      	; 0x7a4 <_ZN15OrangutanAnalog7getModeEv+0x8>
     7ac:	81 70       	andi	r24, 0x01	; 1
     7ae:	08 95       	ret

000007b0 <_ZN15OrangutanAnalog12isConvertingEv>:
     7b0:	80 91 7a 00 	lds	r24, 0x007A
     7b4:	90 e0       	ldi	r25, 0x00	; 0
     7b6:	36 e0       	ldi	r19, 0x06	; 6
     7b8:	95 95       	asr	r25
     7ba:	87 95       	ror	r24
     7bc:	3a 95       	dec	r19
     7be:	e1 f7       	brne	.-8      	; 0x7b8 <_ZN15OrangutanAnalog12isConvertingEv+0x8>
     7c0:	81 70       	andi	r24, 0x01	; 1
     7c2:	08 95       	ret

000007c4 <_ZN15OrangutanAnalog16conversionResultEv>:
     7c4:	0e 94 ce 03 	call	0x79c	; 0x79c <_ZN15OrangutanAnalog7getModeEv>
     7c8:	88 23       	and	r24, r24
     7ca:	21 f0       	breq	.+8      	; 0x7d4 <_ZN15OrangutanAnalog16conversionResultEv+0x10>
     7cc:	20 91 79 00 	lds	r18, 0x0079
     7d0:	30 e0       	ldi	r19, 0x00	; 0
     7d2:	04 c0       	rjmp	.+8      	; 0x7dc <_ZN15OrangutanAnalog16conversionResultEv+0x18>
     7d4:	20 91 78 00 	lds	r18, 0x0078
     7d8:	30 91 79 00 	lds	r19, 0x0079
     7dc:	c9 01       	movw	r24, r18
     7de:	08 95       	ret

000007e0 <_ZN15OrangutanAnalog15startConversionEhh>:
     7e0:	80 32       	cpi	r24, 0x20	; 32
     7e2:	b0 f4       	brcc	.+44     	; 0x810 <_ZN15OrangutanAnalog15startConversionEhh+0x30>
     7e4:	97 e8       	ldi	r25, 0x87	; 135
     7e6:	90 93 7a 00 	sts	0x007A, r25
     7ea:	90 91 7c 00 	lds	r25, 0x007C
     7ee:	29 2f       	mov	r18, r25
     7f0:	20 64       	ori	r18, 0x40	; 64
     7f2:	66 23       	and	r22, r22
     7f4:	11 f0       	breq	.+4      	; 0x7fa <_ZN15OrangutanAnalog15startConversionEhh+0x1a>
     7f6:	90 6c       	ori	r25, 0xC0	; 192
     7f8:	02 c0       	rjmp	.+4      	; 0x7fe <_ZN15OrangutanAnalog15startConversionEhh+0x1e>
     7fa:	92 2f       	mov	r25, r18
     7fc:	9f 77       	andi	r25, 0x7F	; 127
     7fe:	90 7e       	andi	r25, 0xE0	; 224
     800:	98 2b       	or	r25, r24
     802:	90 93 7c 00 	sts	0x007C, r25
     806:	80 91 7a 00 	lds	r24, 0x007A
     80a:	80 64       	ori	r24, 0x40	; 64
     80c:	80 93 7a 00 	sts	0x007A, r24
     810:	08 95       	ret

00000812 <_ZN15OrangutanAnalog11readAverageEhj>:
     812:	a0 e0       	ldi	r26, 0x00	; 0
     814:	b0 e0       	ldi	r27, 0x00	; 0
     816:	ef e0       	ldi	r30, 0x0F	; 15
     818:	f4 e0       	ldi	r31, 0x04	; 4
     81a:	0c 94 c7 11 	jmp	0x238e	; 0x238e <__prologue_saves__+0x14>
     81e:	6b 01       	movw	r12, r22
     820:	60 e0       	ldi	r22, 0x00	; 0
     822:	0e 94 f0 03 	call	0x7e0	; 0x7e0 <_ZN15OrangutanAnalog15startConversionEhh>
     826:	0e 94 d8 03 	call	0x7b0	; 0x7b0 <_ZN15OrangutanAnalog12isConvertingEv>
     82a:	88 23       	and	r24, r24
     82c:	e1 f7       	brne	.-8      	; 0x826 <_ZN15OrangutanAnalog11readAverageEhj+0x14>
     82e:	e6 01       	movw	r28, r12
     830:	ee 24       	eor	r14, r14
     832:	ff 24       	eor	r15, r15
     834:	87 01       	movw	r16, r14
     836:	80 91 7a 00 	lds	r24, 0x007A
     83a:	80 64       	ori	r24, 0x40	; 64
     83c:	80 93 7a 00 	sts	0x007A, r24
     840:	0e 94 d8 03 	call	0x7b0	; 0x7b0 <_ZN15OrangutanAnalog12isConvertingEv>
     844:	88 23       	and	r24, r24
     846:	e1 f7       	brne	.-8      	; 0x840 <_ZN15OrangutanAnalog11readAverageEhj+0x2e>
     848:	0e 94 e2 03 	call	0x7c4	; 0x7c4 <_ZN15OrangutanAnalog16conversionResultEv>
     84c:	a0 e0       	ldi	r26, 0x00	; 0
     84e:	b0 e0       	ldi	r27, 0x00	; 0
     850:	e8 0e       	add	r14, r24
     852:	f9 1e       	adc	r15, r25
     854:	0a 1f       	adc	r16, r26
     856:	1b 1f       	adc	r17, r27
     858:	21 97       	sbiw	r28, 0x01	; 1
     85a:	69 f7       	brne	.-38     	; 0x836 <_ZN15OrangutanAnalog11readAverageEhj+0x24>
     85c:	c6 01       	movw	r24, r12
     85e:	96 95       	lsr	r25
     860:	87 95       	ror	r24
     862:	20 e4       	ldi	r18, 0x40	; 64
     864:	c2 16       	cp	r12, r18
     866:	d1 04       	cpc	r13, r1
     868:	40 f4       	brcc	.+16     	; 0x87a <_ZN15OrangutanAnalog11readAverageEhj+0x68>
     86a:	8e 0d       	add	r24, r14
     86c:	9f 1d       	adc	r25, r15
     86e:	6c 2d       	mov	r22, r12
     870:	70 e0       	ldi	r23, 0x00	; 0
     872:	0e 94 49 11 	call	0x2292	; 0x2292 <__udivmodhi4>
     876:	cb 01       	movw	r24, r22
     878:	0d c0       	rjmp	.+26     	; 0x894 <_ZN15OrangutanAnalog11readAverageEhj+0x82>
     87a:	bc 01       	movw	r22, r24
     87c:	80 e0       	ldi	r24, 0x00	; 0
     87e:	90 e0       	ldi	r25, 0x00	; 0
     880:	6e 0d       	add	r22, r14
     882:	7f 1d       	adc	r23, r15
     884:	80 1f       	adc	r24, r16
     886:	91 1f       	adc	r25, r17
     888:	96 01       	movw	r18, r12
     88a:	40 e0       	ldi	r20, 0x00	; 0
     88c:	50 e0       	ldi	r21, 0x00	; 0
     88e:	0e 94 71 11 	call	0x22e2	; 0x22e2 <__udivmodsi4>
     892:	c9 01       	movw	r24, r18
     894:	cd b7       	in	r28, 0x3d	; 61
     896:	de b7       	in	r29, 0x3e	; 62
     898:	e8 e0       	ldi	r30, 0x08	; 8
     89a:	0c 94 e3 11 	jmp	0x23c6	; 0x23c6 <__epilogue_restores__+0x14>

0000089e <_ZN15OrangutanAnalog12toMillivoltsEj>:
     89e:	a3 e0       	ldi	r26, 0x03	; 3
     8a0:	b0 e0       	ldi	r27, 0x00	; 0
     8a2:	e5 e5       	ldi	r30, 0x55	; 85
     8a4:	f4 e0       	ldi	r31, 0x04	; 4
     8a6:	0c 94 cc 11 	jmp	0x2398	; 0x2398 <__prologue_saves__+0x1e>
     8aa:	bc 01       	movw	r22, r24
     8ac:	80 e0       	ldi	r24, 0x00	; 0
     8ae:	90 e0       	ldi	r25, 0x00	; 0
     8b0:	20 91 00 01 	lds	r18, 0x0100
     8b4:	30 91 01 01 	lds	r19, 0x0101
     8b8:	40 e0       	ldi	r20, 0x00	; 0
     8ba:	50 e0       	ldi	r21, 0x00	; 0
     8bc:	0e 94 2d 11 	call	0x225a	; 0x225a <__mulsi3>
     8c0:	18 2f       	mov	r17, r24
     8c2:	69 83       	std	Y+1, r22	; 0x01
     8c4:	7a 83       	std	Y+2, r23	; 0x02
     8c6:	9b 83       	std	Y+3, r25	; 0x03
     8c8:	0e 94 ce 03 	call	0x79c	; 0x79c <_ZN15OrangutanAnalog7getModeEv>
     8cc:	69 81       	ldd	r22, Y+1	; 0x01
     8ce:	7a 81       	ldd	r23, Y+2	; 0x02
     8d0:	9b 81       	ldd	r25, Y+3	; 0x03
     8d2:	88 23       	and	r24, r24
     8d4:	71 f0       	breq	.+28     	; 0x8f2 <_ZN15OrangutanAnalog12toMillivoltsEj+0x54>
     8d6:	9b 01       	movw	r18, r22
     8d8:	41 2f       	mov	r20, r17
     8da:	59 2f       	mov	r21, r25
     8dc:	ca 01       	movw	r24, r20
     8de:	b9 01       	movw	r22, r18
     8e0:	61 58       	subi	r22, 0x81	; 129
     8e2:	7f 4f       	sbci	r23, 0xFF	; 255
     8e4:	8f 4f       	sbci	r24, 0xFF	; 255
     8e6:	9f 4f       	sbci	r25, 0xFF	; 255
     8e8:	2f ef       	ldi	r18, 0xFF	; 255
     8ea:	30 e0       	ldi	r19, 0x00	; 0
     8ec:	40 e0       	ldi	r20, 0x00	; 0
     8ee:	50 e0       	ldi	r21, 0x00	; 0
     8f0:	0d c0       	rjmp	.+26     	; 0x90c <__stack+0xd>
     8f2:	9b 01       	movw	r18, r22
     8f4:	41 2f       	mov	r20, r17
     8f6:	59 2f       	mov	r21, r25
     8f8:	ca 01       	movw	r24, r20
     8fa:	b9 01       	movw	r22, r18
     8fc:	61 50       	subi	r22, 0x01	; 1
     8fe:	7e 4f       	sbci	r23, 0xFE	; 254
     900:	8f 4f       	sbci	r24, 0xFF	; 255
     902:	9f 4f       	sbci	r25, 0xFF	; 255
     904:	2f ef       	ldi	r18, 0xFF	; 255
     906:	33 e0       	ldi	r19, 0x03	; 3
     908:	40 e0       	ldi	r20, 0x00	; 0
     90a:	50 e0       	ldi	r21, 0x00	; 0
     90c:	0e 94 71 11 	call	0x22e2	; 0x22e2 <__udivmodsi4>
     910:	c9 01       	movw	r24, r18
     912:	23 96       	adiw	r28, 0x03	; 3
     914:	e3 e0       	ldi	r30, 0x03	; 3
     916:	0c 94 e8 11 	jmp	0x23d0	; 0x23d0 <__epilogue_restores__+0x1e>

0000091a <_ZN15OrangutanAnalog21readAverageMillivoltsEhj>:
     91a:	0e 94 09 04 	call	0x812	; 0x812 <_ZN15OrangutanAnalog11readAverageEhj>
     91e:	0e 94 4f 04 	call	0x89e	; 0x89e <_ZN15OrangutanAnalog12toMillivoltsEj>
     922:	08 95       	ret

00000924 <_ZN15OrangutanAnalog25readBatteryMillivolts_3piEv>:
     924:	1f 93       	push	r17
     926:	cf 93       	push	r28
     928:	df 93       	push	r29
     92a:	0e 94 ce 03 	call	0x79c	; 0x79c <_ZN15OrangutanAnalog7getModeEv>
     92e:	18 2f       	mov	r17, r24
     930:	80 e0       	ldi	r24, 0x00	; 0
     932:	0e 94 c2 03 	call	0x784	; 0x784 <_ZN15OrangutanAnalog7setModeEh>
     936:	86 e0       	ldi	r24, 0x06	; 6
     938:	6a e0       	ldi	r22, 0x0A	; 10
     93a:	70 e0       	ldi	r23, 0x00	; 0
     93c:	0e 94 8d 04 	call	0x91a	; 0x91a <_ZN15OrangutanAnalog21readAverageMillivoltsEhj>
     940:	ec 01       	movw	r28, r24
     942:	81 2f       	mov	r24, r17
     944:	0e 94 c2 03 	call	0x784	; 0x784 <_ZN15OrangutanAnalog7setModeEh>
     948:	9e 01       	movw	r18, r28
     94a:	22 0f       	add	r18, r18
     94c:	33 1f       	adc	r19, r19
     94e:	2c 0f       	add	r18, r28
     950:	3d 1f       	adc	r19, r29
     952:	2f 5f       	subi	r18, 0xFF	; 255
     954:	3f 4f       	sbci	r19, 0xFF	; 255
     956:	36 95       	lsr	r19
     958:	27 95       	ror	r18
     95a:	c9 01       	movw	r24, r18
     95c:	df 91       	pop	r29
     95e:	cf 91       	pop	r28
     960:	1f 91       	pop	r17
     962:	08 95       	ret

00000964 <read_battery_millivolts_3pi>:
     964:	0e 94 92 04 	call	0x924	; 0x924 <_ZN15OrangutanAnalog25readBatteryMillivolts_3piEv>
     968:	08 95       	ret

0000096a <_ZL16currentCharacterv>:
     96a:	90 91 4f 01 	lds	r25, 0x014F
     96e:	e0 91 4b 01 	lds	r30, 0x014B
     972:	f0 91 4c 01 	lds	r31, 0x014C
     976:	99 23       	and	r25, r25
     978:	11 f0       	breq	.+4      	; 0x97e <_ZL16currentCharacterv+0x14>
     97a:	84 91       	lpm	r24, Z
     97c:	01 c0       	rjmp	.+2      	; 0x980 <_ZL16currentCharacterv+0x16>
     97e:	80 81       	ld	r24, Z
     980:	28 2f       	mov	r18, r24
     982:	21 54       	subi	r18, 0x41	; 65
     984:	2a 31       	cpi	r18, 0x1A	; 26
     986:	10 f4       	brcc	.+4      	; 0x98c <_ZL16currentCharacterv+0x22>
     988:	80 5e       	subi	r24, 0xE0	; 224
     98a:	08 95       	ret
     98c:	80 32       	cpi	r24, 0x20	; 32
     98e:	71 f4       	brne	.+28     	; 0x9ac <_ZL16currentCharacterv+0x42>
     990:	20 91 4b 01 	lds	r18, 0x014B
     994:	30 91 4c 01 	lds	r19, 0x014C
     998:	a9 01       	movw	r20, r18
     99a:	4f 5f       	subi	r20, 0xFF	; 255
     99c:	5f 4f       	sbci	r21, 0xFF	; 255
     99e:	50 93 4c 01 	sts	0x014C, r21
     9a2:	40 93 4b 01 	sts	0x014B, r20
     9a6:	21 15       	cp	r18, r1
     9a8:	31 05       	cpc	r19, r1
     9aa:	09 f7       	brne	.-62     	; 0x96e <_ZL16currentCharacterv+0x4>
     9ac:	08 95       	ret

000009ae <_ZL9getNumberv>:
     9ae:	ef 92       	push	r14
     9b0:	ff 92       	push	r15
     9b2:	cf 93       	push	r28
     9b4:	df 93       	push	r29
     9b6:	0e 94 b5 04 	call	0x96a	; 0x96a <_ZL16currentCharacterv>
     9ba:	c0 e0       	ldi	r28, 0x00	; 0
     9bc:	d0 e0       	ldi	r29, 0x00	; 0
     9be:	1b c0       	rjmp	.+54     	; 0x9f6 <_ZL9getNumberv+0x48>
     9c0:	9e 01       	movw	r18, r28
     9c2:	22 0f       	add	r18, r18
     9c4:	33 1f       	adc	r19, r19
     9c6:	93 e0       	ldi	r25, 0x03	; 3
     9c8:	cc 0f       	add	r28, r28
     9ca:	dd 1f       	adc	r29, r29
     9cc:	9a 95       	dec	r25
     9ce:	e1 f7       	brne	.-8      	; 0x9c8 <_ZL9getNumberv+0x1a>
     9d0:	c2 0f       	add	r28, r18
     9d2:	d3 1f       	adc	r29, r19
     9d4:	99 27       	eor	r25, r25
     9d6:	87 fd       	sbrc	r24, 7
     9d8:	90 95       	com	r25
     9da:	c8 0f       	add	r28, r24
     9dc:	d9 1f       	adc	r29, r25
     9de:	e0 97       	sbiw	r28, 0x30	; 48
     9e0:	80 91 4b 01 	lds	r24, 0x014B
     9e4:	90 91 4c 01 	lds	r25, 0x014C
     9e8:	01 96       	adiw	r24, 0x01	; 1
     9ea:	90 93 4c 01 	sts	0x014C, r25
     9ee:	80 93 4b 01 	sts	0x014B, r24
     9f2:	0e 94 b5 04 	call	0x96a	; 0x96a <_ZL16currentCharacterv>
     9f6:	98 2f       	mov	r25, r24
     9f8:	90 53       	subi	r25, 0x30	; 48
     9fa:	9a 30       	cpi	r25, 0x0A	; 10
     9fc:	08 f3       	brcs	.-62     	; 0x9c0 <_ZL9getNumberv+0x12>
     9fe:	ce 01       	movw	r24, r28
     a00:	df 91       	pop	r29
     a02:	cf 91       	pop	r28
     a04:	ff 90       	pop	r15
     a06:	ef 90       	pop	r14
     a08:	08 95       	ret

00000a0a <_ZN15OrangutanBuzzer5init2Ev>:
     a0a:	10 92 6f 00 	sts	0x006F, r1
     a0e:	83 e2       	ldi	r24, 0x23	; 35
     a10:	80 93 80 00 	sts	0x0080, r24
     a14:	81 e1       	ldi	r24, 0x11	; 17
     a16:	80 93 81 00 	sts	0x0081, r24
     a1a:	10 92 82 00 	sts	0x0082, r1
     a1e:	80 e1       	ldi	r24, 0x10	; 16
     a20:	97 e2       	ldi	r25, 0x27	; 39
     a22:	90 93 89 00 	sts	0x0089, r25
     a26:	80 93 88 00 	sts	0x0088, r24
     a2a:	10 92 8b 00 	sts	0x008B, r1
     a2e:	10 92 8a 00 	sts	0x008A, r1
     a32:	22 9a       	sbi	0x04, 2	; 4
     a34:	78 94       	sei
     a36:	08 95       	ret

00000a38 <_ZN15OrangutanBuzzer4initEv>:
     a38:	80 91 4a 01 	lds	r24, 0x014A
     a3c:	88 23       	and	r24, r24
     a3e:	29 f4       	brne	.+10     	; 0xa4a <_ZN15OrangutanBuzzer4initEv+0x12>
     a40:	81 e0       	ldi	r24, 0x01	; 1
     a42:	80 93 4a 01 	sts	0x014A, r24
     a46:	0e 94 05 05 	call	0xa0a	; 0xa0a <_ZN15OrangutanBuzzer5init2Ev>
     a4a:	08 95       	ret

00000a4c <_ZN15OrangutanBuzzer13playFrequencyEjjh>:
     a4c:	a0 e0       	ldi	r26, 0x00	; 0
     a4e:	b0 e0       	ldi	r27, 0x00	; 0
     a50:	ec e2       	ldi	r30, 0x2C	; 44
     a52:	f5 e0       	ldi	r31, 0x05	; 5
     a54:	0c 94 c3 11 	jmp	0x2386	; 0x2386 <__prologue_saves__+0xc>
     a58:	8c 01       	movw	r16, r24
     a5a:	5b 01       	movw	r10, r22
     a5c:	e4 2e       	mov	r14, r20
     a5e:	0e 94 1c 05 	call	0xa38	; 0xa38 <_ZN15OrangutanBuzzer4initEv>
     a62:	10 92 02 01 	sts	0x0102, r1
     a66:	17 ff       	sbrs	r17, 7
     a68:	04 c0       	rjmp	.+8      	; 0xa72 <_ZN15OrangutanBuzzer13playFrequencyEjjh+0x26>
     a6a:	1f 77       	andi	r17, 0x7F	; 127
     a6c:	aa e0       	ldi	r26, 0x0A	; 10
     a6e:	fa 2e       	mov	r15, r26
     a70:	02 c0       	rjmp	.+4      	; 0xa76 <_ZN15OrangutanBuzzer13playFrequencyEjjh+0x2a>
     a72:	ff 24       	eor	r15, r15
     a74:	f3 94       	inc	r15
     a76:	c0 90 81 00 	lds	r12, 0x0081
     a7a:	dd 24       	eor	r13, r13
     a7c:	28 ef       	ldi	r18, 0xF8	; 248
     a7e:	c2 22       	and	r12, r18
     a80:	dd 24       	eor	r13, r13
     a82:	88 ec       	ldi	r24, 0xC8	; 200
     a84:	3f 2d       	mov	r19, r15
     a86:	38 9f       	mul	r19, r24
     a88:	c0 01       	movw	r24, r0
     a8a:	11 24       	eor	r1, r1
     a8c:	80 17       	cp	r24, r16
     a8e:	91 07       	cpc	r25, r17
     a90:	d8 f4       	brcc	.+54     	; 0xac8 <_ZN15OrangutanBuzzer13playFrequencyEjjh+0x7c>
     a92:	e8 01       	movw	r28, r16
     a94:	67 e2       	ldi	r22, 0x27	; 39
     a96:	01 31       	cpi	r16, 0x11	; 17
     a98:	16 07       	cpc	r17, r22
     a9a:	10 f0       	brcs	.+4      	; 0xaa0 <_ZN15OrangutanBuzzer13playFrequencyEjjh+0x54>
     a9c:	c0 e1       	ldi	r28, 0x10	; 16
     a9e:	d7 e2       	ldi	r29, 0x27	; 39
     aa0:	be 01       	movw	r22, r28
     aa2:	76 95       	lsr	r23
     aa4:	67 95       	ror	r22
     aa6:	80 e0       	ldi	r24, 0x00	; 0
     aa8:	90 e0       	ldi	r25, 0x00	; 0
     aaa:	60 58       	subi	r22, 0x80	; 128
     aac:	79 46       	sbci	r23, 0x69	; 105
     aae:	87 46       	sbci	r24, 0x67	; 103
     ab0:	9f 4f       	sbci	r25, 0xFF	; 255
     ab2:	9e 01       	movw	r18, r28
     ab4:	40 e0       	ldi	r20, 0x00	; 0
     ab6:	50 e0       	ldi	r21, 0x00	; 0
     ab8:	0e 94 71 11 	call	0x22e2	; 0x22e2 <__udivmodsi4>
     abc:	89 01       	movw	r16, r18
     abe:	81 e0       	ldi	r24, 0x01	; 1
     ac0:	90 e0       	ldi	r25, 0x00	; 0
     ac2:	c8 2a       	or	r12, r24
     ac4:	d9 2a       	or	r13, r25
     ac6:	2c c0       	rjmp	.+88     	; 0xb20 <_ZN15OrangutanBuzzer13playFrequencyEjjh+0xd4>
     ac8:	98 e2       	ldi	r25, 0x28	; 40
     aca:	f9 9e       	mul	r15, r25
     acc:	90 2d       	mov	r25, r0
     ace:	11 24       	eor	r1, r1
     ad0:	80 e0       	ldi	r24, 0x00	; 0
     ad2:	89 2e       	mov	r8, r25
     ad4:	e4 01       	movw	r28, r8
     ad6:	4e 01       	movw	r8, r28
     ad8:	98 2e       	mov	r9, r24
     ada:	e4 01       	movw	r28, r8
     adc:	80 16       	cp	r8, r16
     ade:	91 06       	cpc	r9, r17
     ae0:	08 f4       	brcc	.+2      	; 0xae4 <_ZN15OrangutanBuzzer13playFrequencyEjjh+0x98>
     ae2:	e8 01       	movw	r28, r16
     ae4:	be 01       	movw	r22, r28
     ae6:	76 95       	lsr	r23
     ae8:	67 95       	ror	r22
     aea:	9e 01       	movw	r18, r28
     aec:	40 e0       	ldi	r20, 0x00	; 0
     aee:	50 e0       	ldi	r21, 0x00	; 0
     af0:	8f 2d       	mov	r24, r15
     af2:	8a 30       	cpi	r24, 0x0A	; 10
     af4:	39 f4       	brne	.+14     	; 0xb04 <_ZN15OrangutanBuzzer13playFrequencyEjjh+0xb8>
     af6:	80 e0       	ldi	r24, 0x00	; 0
     af8:	90 e0       	ldi	r25, 0x00	; 0
     afa:	60 5e       	subi	r22, 0xE0	; 224
     afc:	73 44       	sbci	r23, 0x43	; 67
     afe:	81 44       	sbci	r24, 0x41	; 65
     b00:	9f 4f       	sbci	r25, 0xFF	; 255
     b02:	06 c0       	rjmp	.+12     	; 0xb10 <_ZN15OrangutanBuzzer13playFrequencyEjjh+0xc4>
     b04:	80 e0       	ldi	r24, 0x00	; 0
     b06:	90 e0       	ldi	r25, 0x00	; 0
     b08:	60 53       	subi	r22, 0x30	; 48
     b0a:	7d 4e       	sbci	r23, 0xED	; 237
     b0c:	8c 4e       	sbci	r24, 0xEC	; 236
     b0e:	9f 4f       	sbci	r25, 0xFF	; 255
     b10:	0e 94 71 11 	call	0x22e2	; 0x22e2 <__udivmodsi4>
     b14:	89 01       	movw	r16, r18
     b16:	52 e0       	ldi	r21, 0x02	; 2
     b18:	85 2e       	mov	r8, r21
     b1a:	91 2c       	mov	r9, r1
     b1c:	c8 28       	or	r12, r8
     b1e:	d9 28       	or	r13, r9
     b20:	2f 2d       	mov	r18, r15
     b22:	2a 30       	cpi	r18, 0x0A	; 10
     b24:	39 f4       	brne	.+14     	; 0xb34 <_ZN15OrangutanBuzzer13playFrequencyEjjh+0xe8>
     b26:	ce 01       	movw	r24, r28
     b28:	05 96       	adiw	r24, 0x05	; 5
     b2a:	6a e0       	ldi	r22, 0x0A	; 10
     b2c:	70 e0       	ldi	r23, 0x00	; 0
     b2e:	0e 94 49 11 	call	0x2292	; 0x2292 <__udivmodhi4>
     b32:	eb 01       	movw	r28, r22
     b34:	33 e0       	ldi	r19, 0x03	; 3
     b36:	c8 3e       	cpi	r28, 0xE8	; 232
     b38:	d3 07       	cpc	r29, r19
     b3a:	79 f0       	breq	.+30     	; 0xb5a <_ZN15OrangutanBuzzer13playFrequencyEjjh+0x10e>
     b3c:	be 01       	movw	r22, r28
     b3e:	80 e0       	ldi	r24, 0x00	; 0
     b40:	90 e0       	ldi	r25, 0x00	; 0
     b42:	95 01       	movw	r18, r10
     b44:	40 e0       	ldi	r20, 0x00	; 0
     b46:	50 e0       	ldi	r21, 0x00	; 0
     b48:	0e 94 2d 11 	call	0x225a	; 0x225a <__mulsi3>
     b4c:	28 ee       	ldi	r18, 0xE8	; 232
     b4e:	33 e0       	ldi	r19, 0x03	; 3
     b50:	40 e0       	ldi	r20, 0x00	; 0
     b52:	50 e0       	ldi	r21, 0x00	; 0
     b54:	0e 94 93 11 	call	0x2326	; 0x2326 <__divmodsi4>
     b58:	01 c0       	rjmp	.+2      	; 0xb5c <_ZN15OrangutanBuzzer13playFrequencyEjjh+0x110>
     b5a:	95 01       	movw	r18, r10
     b5c:	10 92 6f 00 	sts	0x006F, r1
     b60:	c0 92 81 00 	sts	0x0081, r12
     b64:	10 93 89 00 	sts	0x0089, r17
     b68:	00 93 88 00 	sts	0x0088, r16
     b6c:	40 91 88 00 	lds	r20, 0x0088
     b70:	50 91 89 00 	lds	r21, 0x0089
     b74:	6e 2d       	mov	r22, r14
     b76:	60 31       	cpi	r22, 0x10	; 16
     b78:	08 f0       	brcs	.+2      	; 0xb7c <_ZN15OrangutanBuzzer13playFrequencyEjjh+0x130>
     b7a:	6f e0       	ldi	r22, 0x0F	; 15
     b7c:	80 e1       	ldi	r24, 0x10	; 16
     b7e:	90 e0       	ldi	r25, 0x00	; 0
     b80:	86 1b       	sub	r24, r22
     b82:	91 09       	sbc	r25, r1
     b84:	ba 01       	movw	r22, r20
     b86:	02 c0       	rjmp	.+4      	; 0xb8c <_ZN15OrangutanBuzzer13playFrequencyEjjh+0x140>
     b88:	76 95       	lsr	r23
     b8a:	67 95       	ror	r22
     b8c:	8a 95       	dec	r24
     b8e:	e2 f7       	brpl	.-8      	; 0xb88 <_ZN15OrangutanBuzzer13playFrequencyEjjh+0x13c>
     b90:	70 93 8b 00 	sts	0x008B, r23
     b94:	60 93 8a 00 	sts	0x008A, r22
     b98:	30 93 52 01 	sts	0x0152, r19
     b9c:	20 93 51 01 	sts	0x0151, r18
     ba0:	86 b3       	in	r24, 0x16	; 22
     ba2:	8f ef       	ldi	r24, 0xFF	; 255
     ba4:	86 bb       	out	0x16, r24	; 22
     ba6:	81 e0       	ldi	r24, 0x01	; 1
     ba8:	80 93 6f 00 	sts	0x006F, r24
     bac:	cd b7       	in	r28, 0x3d	; 61
     bae:	de b7       	in	r29, 0x3e	; 62
     bb0:	ec e0       	ldi	r30, 0x0C	; 12
     bb2:	0c 94 df 11 	jmp	0x23be	; 0x23be <__epilogue_restores__+0xc>

00000bb6 <_ZN15OrangutanBuzzer8playNoteEhjh>:
     bb6:	9b 01       	movw	r18, r22
     bb8:	8f 3f       	cpi	r24, 0xFF	; 255
     bba:	11 f0       	breq	.+4      	; 0xbc0 <_ZN15OrangutanBuzzer8playNoteEhjh+0xa>
     bbc:	44 23       	and	r20, r20
     bbe:	29 f4       	brne	.+10     	; 0xbca <_ZN15OrangutanBuzzer8playNoteEhjh+0x14>
     bc0:	88 ee       	ldi	r24, 0xE8	; 232
     bc2:	93 e0       	ldi	r25, 0x03	; 3
     bc4:	b9 01       	movw	r22, r18
     bc6:	40 e0       	ldi	r20, 0x00	; 0
     bc8:	49 c0       	rjmp	.+146    	; 0xc5c <_ZN15OrangutanBuzzer8playNoteEhjh+0xa6>
     bca:	81 31       	cpi	r24, 0x11	; 17
     bcc:	30 f0       	brcs	.+12     	; 0xbda <_ZN15OrangutanBuzzer8playNoteEhjh+0x24>
     bce:	58 2f       	mov	r21, r24
     bd0:	50 51       	subi	r21, 0x10	; 16
     bd2:	50 36       	cpi	r21, 0x60	; 96
     bd4:	18 f0       	brcs	.+6      	; 0xbdc <_ZN15OrangutanBuzzer8playNoteEhjh+0x26>
     bd6:	5f e5       	ldi	r21, 0x5F	; 95
     bd8:	01 c0       	rjmp	.+2      	; 0xbdc <_ZN15OrangutanBuzzer8playNoteEhjh+0x26>
     bda:	50 e0       	ldi	r21, 0x00	; 0
     bdc:	85 2f       	mov	r24, r21
     bde:	6c e0       	ldi	r22, 0x0C	; 12
     be0:	0e 94 3d 11 	call	0x227a	; 0x227a <__udivmodqi4>
     be4:	a8 2f       	mov	r26, r24
     be6:	b0 e0       	ldi	r27, 0x00	; 0
     be8:	e4 ef       	ldi	r30, 0xF4	; 244
     bea:	ff ef       	ldi	r31, 0xFF	; 255
     bec:	ae 9f       	mul	r26, r30
     bee:	b0 01       	movw	r22, r0
     bf0:	af 9f       	mul	r26, r31
     bf2:	70 0d       	add	r23, r0
     bf4:	be 9f       	mul	r27, r30
     bf6:	70 0d       	add	r23, r0
     bf8:	11 24       	eor	r1, r1
     bfa:	65 0f       	add	r22, r21
     bfc:	71 1d       	adc	r23, r1
     bfe:	6c 30       	cpi	r22, 0x0C	; 12
     c00:	71 05       	cpc	r23, r1
     c02:	40 f4       	brcc	.+16     	; 0xc14 <_ZN15OrangutanBuzzer8playNoteEhjh+0x5e>
     c04:	fb 01       	movw	r30, r22
     c06:	ee 0f       	add	r30, r30
     c08:	ff 1f       	adc	r31, r31
     c0a:	e4 5f       	subi	r30, 0xF4	; 244
     c0c:	fe 4f       	sbci	r31, 0xFE	; 254
     c0e:	60 81       	ld	r22, Z
     c10:	71 81       	ldd	r23, Z+1	; 0x01
     c12:	02 c0       	rjmp	.+4      	; 0xc18 <_ZN15OrangutanBuzzer8playNoteEhjh+0x62>
     c14:	60 e0       	ldi	r22, 0x00	; 0
     c16:	70 e0       	ldi	r23, 0x00	; 0
     c18:	87 30       	cpi	r24, 0x07	; 7
     c1a:	81 f0       	breq	.+32     	; 0xc3c <_ZN15OrangutanBuzzer8playNoteEhjh+0x86>
     c1c:	08 2e       	mov	r0, r24
     c1e:	02 c0       	rjmp	.+4      	; 0xc24 <_ZN15OrangutanBuzzer8playNoteEhjh+0x6e>
     c20:	66 0f       	add	r22, r22
     c22:	77 1f       	adc	r23, r23
     c24:	0a 94       	dec	r0
     c26:	e2 f7       	brpl	.-8      	; 0xc20 <_ZN15OrangutanBuzzer8playNoteEhjh+0x6a>
     c28:	82 30       	cpi	r24, 0x02	; 2
     c2a:	28 f0       	brcs	.+10     	; 0xc36 <_ZN15OrangutanBuzzer8playNoteEhjh+0x80>
     c2c:	cb 01       	movw	r24, r22
     c2e:	05 96       	adiw	r24, 0x05	; 5
     c30:	6a e0       	ldi	r22, 0x0A	; 10
     c32:	70 e0       	ldi	r23, 0x00	; 0
     c34:	0c c0       	rjmp	.+24     	; 0xc4e <_ZN15OrangutanBuzzer8playNoteEhjh+0x98>
     c36:	60 50       	subi	r22, 0x00	; 0
     c38:	70 48       	sbci	r23, 0x80	; 128
     c3a:	0b c0       	rjmp	.+22     	; 0xc52 <_ZN15OrangutanBuzzer8playNoteEhjh+0x9c>
     c3c:	cb 01       	movw	r24, r22
     c3e:	b6 e0       	ldi	r27, 0x06	; 6
     c40:	88 0f       	add	r24, r24
     c42:	99 1f       	adc	r25, r25
     c44:	ba 95       	dec	r27
     c46:	e1 f7       	brne	.-8      	; 0xc40 <_ZN15OrangutanBuzzer8playNoteEhjh+0x8a>
     c48:	02 96       	adiw	r24, 0x02	; 2
     c4a:	65 e0       	ldi	r22, 0x05	; 5
     c4c:	70 e0       	ldi	r23, 0x00	; 0
     c4e:	0e 94 49 11 	call	0x2292	; 0x2292 <__udivmodhi4>
     c52:	40 31       	cpi	r20, 0x10	; 16
     c54:	08 f0       	brcs	.+2      	; 0xc58 <_ZN15OrangutanBuzzer8playNoteEhjh+0xa2>
     c56:	4f e0       	ldi	r20, 0x0F	; 15
     c58:	cb 01       	movw	r24, r22
     c5a:	b9 01       	movw	r22, r18
     c5c:	0e 94 26 05 	call	0xa4c	; 0xa4c <_ZN15OrangutanBuzzer13playFrequencyEjjh>
     c60:	08 95       	ret

00000c62 <_ZL8nextNotev>:
     c62:	a0 e0       	ldi	r26, 0x00	; 0
     c64:	b0 e0       	ldi	r27, 0x00	; 0
     c66:	e7 e3       	ldi	r30, 0x37	; 55
     c68:	f6 e0       	ldi	r31, 0x06	; 6
     c6a:	0c 94 c2 11 	jmp	0x2384	; 0x2384 <__prologue_saves__+0xa>
     c6e:	b0 90 03 01 	lds	r11, 0x0103
     c72:	80 91 4d 01 	lds	r24, 0x014D
     c76:	88 23       	and	r24, r24
     c78:	61 f0       	breq	.+24     	; 0xc92 <_ZL8nextNotev+0x30>
     c7a:	60 91 4e 01 	lds	r22, 0x014E
     c7e:	66 23       	and	r22, r22
     c80:	41 f0       	breq	.+16     	; 0xc92 <_ZL8nextNotev+0x30>
     c82:	8f ef       	ldi	r24, 0xFF	; 255
     c84:	70 e0       	ldi	r23, 0x00	; 0
     c86:	40 e0       	ldi	r20, 0x00	; 0
     c88:	0e 94 db 05 	call	0xbb6	; 0xbb6 <_ZN15OrangutanBuzzer8playNoteEhjh>
     c8c:	10 92 4e 01 	sts	0x014E, r1
     c90:	34 c1       	rjmp	.+616    	; 0xefa <_ZL8nextNotev+0x298>
     c92:	c0 ec       	ldi	r28, 0xC0	; 192
     c94:	dd e5       	ldi	r29, 0x5D	; 93
     c96:	aa 24       	eor	r10, r10
     c98:	a3 94       	inc	r10
     c9a:	14 e0       	ldi	r17, 0x04	; 4
     c9c:	71 2e       	mov	r7, r17
     c9e:	00 ed       	ldi	r16, 0xD0	; 208
     ca0:	17 e0       	ldi	r17, 0x07	; 7
     ca2:	b4 e0       	ldi	r27, 0x04	; 4
     ca4:	eb 2e       	mov	r14, r27
     ca6:	f1 2c       	mov	r15, r1
     ca8:	a4 ef       	ldi	r26, 0xF4	; 244
     caa:	ca 2e       	mov	r12, r26
     cac:	a1 e0       	ldi	r26, 0x01	; 1
     cae:	da 2e       	mov	r13, r26
     cb0:	ff e0       	ldi	r31, 0x0F	; 15
     cb2:	8f 2e       	mov	r8, r31
     cb4:	91 2c       	mov	r9, r1
     cb6:	0e 94 b5 04 	call	0x96a	; 0x96a <_ZL16currentCharacterv>
     cba:	20 91 4b 01 	lds	r18, 0x014B
     cbe:	30 91 4c 01 	lds	r19, 0x014C
     cc2:	2f 5f       	subi	r18, 0xFF	; 255
     cc4:	3f 4f       	sbci	r19, 0xFF	; 255
     cc6:	30 93 4c 01 	sts	0x014C, r19
     cca:	20 93 4b 01 	sts	0x014B, r18
     cce:	86 36       	cpi	r24, 0x66	; 102
     cd0:	f1 f1       	breq	.+124    	; 0xd4e <_ZL8nextNotev+0xec>
     cd2:	87 36       	cpi	r24, 0x67	; 103
     cd4:	cc f4       	brge	.+50     	; 0xd08 <_ZL8nextNotev+0xa6>
     cd6:	82 36       	cpi	r24, 0x62	; 98
     cd8:	09 f4       	brne	.+2      	; 0xcdc <_ZL8nextNotev+0x7a>
     cda:	af c0       	rjmp	.+350    	; 0xe3a <_ZL8nextNotev+0x1d8>
     cdc:	83 36       	cpi	r24, 0x63	; 99
     cde:	7c f4       	brge	.+30     	; 0xcfe <_ZL8nextNotev+0x9c>
     ce0:	8e 33       	cpi	r24, 0x3E	; 62
     ce2:	49 f1       	breq	.+82     	; 0xd36 <_ZL8nextNotev+0xd4>
     ce4:	8f 33       	cpi	r24, 0x3F	; 63
     ce6:	3c f4       	brge	.+14     	; 0xcf6 <_ZL8nextNotev+0x94>
     ce8:	81 32       	cpi	r24, 0x21	; 33
     cea:	09 f4       	brne	.+2      	; 0xcee <_ZL8nextNotev+0x8c>
     cec:	87 c0       	rjmp	.+270    	; 0xdfc <_ZL8nextNotev+0x19a>
     cee:	8c 33       	cpi	r24, 0x3C	; 60
     cf0:	09 f0       	breq	.+2      	; 0xcf4 <_ZL8nextNotev+0x92>
     cf2:	9b c0       	rjmp	.+310    	; 0xe2a <_ZL8nextNotev+0x1c8>
     cf4:	22 c0       	rjmp	.+68     	; 0xd3a <_ZL8nextNotev+0xd8>
     cf6:	81 36       	cpi	r24, 0x61	; 97
     cf8:	09 f0       	breq	.+2      	; 0xcfc <_ZL8nextNotev+0x9a>
     cfa:	97 c0       	rjmp	.+302    	; 0xe2a <_ZL8nextNotev+0x1c8>
     cfc:	9b c0       	rjmp	.+310    	; 0xe34 <_ZL8nextNotev+0x1d2>
     cfe:	84 36       	cpi	r24, 0x64	; 100
     d00:	01 f1       	breq	.+64     	; 0xd42 <_ZL8nextNotev+0xe0>
     d02:	85 36       	cpi	r24, 0x65	; 101
     d04:	0c f5       	brge	.+66     	; 0xd48 <_ZL8nextNotev+0xe6>
     d06:	1b c0       	rjmp	.+54     	; 0xd3e <_ZL8nextNotev+0xdc>
     d08:	8f 36       	cpi	r24, 0x6F	; 111
     d0a:	09 f4       	brne	.+2      	; 0xd0e <_ZL8nextNotev+0xac>
     d0c:	47 c0       	rjmp	.+142    	; 0xd9c <_ZL8nextNotev+0x13a>
     d0e:	80 37       	cpi	r24, 0x70	; 112
     d10:	44 f4       	brge	.+16     	; 0xd22 <_ZL8nextNotev+0xc0>
     d12:	8c 36       	cpi	r24, 0x6C	; 108
     d14:	11 f1       	breq	.+68     	; 0xd5a <_ZL8nextNotev+0xf8>
     d16:	8d 36       	cpi	r24, 0x6D	; 109
     d18:	61 f1       	breq	.+88     	; 0xd72 <_ZL8nextNotev+0x110>
     d1a:	87 36       	cpi	r24, 0x67	; 103
     d1c:	09 f0       	breq	.+2      	; 0xd20 <_ZL8nextNotev+0xbe>
     d1e:	85 c0       	rjmp	.+266    	; 0xe2a <_ZL8nextNotev+0x1c8>
     d20:	19 c0       	rjmp	.+50     	; 0xd54 <_ZL8nextNotev+0xf2>
     d22:	84 37       	cpi	r24, 0x74	; 116
     d24:	09 f4       	brne	.+2      	; 0xd28 <_ZL8nextNotev+0xc6>
     d26:	44 c0       	rjmp	.+136    	; 0xdb0 <_ZL8nextNotev+0x14e>
     d28:	86 37       	cpi	r24, 0x76	; 118
     d2a:	09 f4       	brne	.+2      	; 0xd2e <_ZL8nextNotev+0xcc>
     d2c:	60 c0       	rjmp	.+192    	; 0xdee <_ZL8nextNotev+0x18c>
     d2e:	82 37       	cpi	r24, 0x72	; 114
     d30:	09 f0       	breq	.+2      	; 0xd34 <_ZL8nextNotev+0xd2>
     d32:	7b c0       	rjmp	.+246    	; 0xe2a <_ZL8nextNotev+0x1c8>
     d34:	39 c0       	rjmp	.+114    	; 0xda8 <_ZL8nextNotev+0x146>
     d36:	b3 94       	inc	r11
     d38:	be cf       	rjmp	.-132    	; 0xcb6 <_ZL8nextNotev+0x54>
     d3a:	ba 94       	dec	r11
     d3c:	bc cf       	rjmp	.-136    	; 0xcb6 <_ZL8nextNotev+0x54>
     d3e:	ee 24       	eor	r14, r14
     d40:	35 c0       	rjmp	.+106    	; 0xdac <_ZL8nextNotev+0x14a>
     d42:	ee 24       	eor	r14, r14
     d44:	82 e0       	ldi	r24, 0x02	; 2
     d46:	7b c0       	rjmp	.+246    	; 0xe3e <_ZL8nextNotev+0x1dc>
     d48:	ee 24       	eor	r14, r14
     d4a:	84 e0       	ldi	r24, 0x04	; 4
     d4c:	78 c0       	rjmp	.+240    	; 0xe3e <_ZL8nextNotev+0x1dc>
     d4e:	ee 24       	eor	r14, r14
     d50:	85 e0       	ldi	r24, 0x05	; 5
     d52:	75 c0       	rjmp	.+234    	; 0xe3e <_ZL8nextNotev+0x1dc>
     d54:	ee 24       	eor	r14, r14
     d56:	87 e0       	ldi	r24, 0x07	; 7
     d58:	72 c0       	rjmp	.+228    	; 0xe3e <_ZL8nextNotev+0x1dc>
     d5a:	0e 94 d7 04 	call	0x9ae	; 0x9ae <_ZL9getNumberv>
     d5e:	bc 01       	movw	r22, r24
     d60:	90 93 05 01 	sts	0x0105, r25
     d64:	80 93 04 01 	sts	0x0104, r24
     d68:	80 91 06 01 	lds	r24, 0x0106
     d6c:	90 91 07 01 	lds	r25, 0x0107
     d70:	37 c0       	rjmp	.+110    	; 0xde0 <_ZL8nextNotev+0x17e>
     d72:	0e 94 b5 04 	call	0x96a	; 0x96a <_ZL16currentCharacterv>
     d76:	8c 36       	cpi	r24, 0x6C	; 108
     d78:	19 f4       	brne	.+6      	; 0xd80 <_ZL8nextNotev+0x11e>
     d7a:	10 92 4d 01 	sts	0x014D, r1
     d7e:	04 c0       	rjmp	.+8      	; 0xd88 <_ZL8nextNotev+0x126>
     d80:	a0 92 4d 01 	sts	0x014D, r10
     d84:	10 92 4e 01 	sts	0x014E, r1
     d88:	80 91 4b 01 	lds	r24, 0x014B
     d8c:	90 91 4c 01 	lds	r25, 0x014C
     d90:	01 96       	adiw	r24, 0x01	; 1
     d92:	90 93 4c 01 	sts	0x014C, r25
     d96:	80 93 4b 01 	sts	0x014B, r24
     d9a:	8d cf       	rjmp	.-230    	; 0xcb6 <_ZL8nextNotev+0x54>
     d9c:	0e 94 d7 04 	call	0x9ae	; 0x9ae <_ZL9getNumberv>
     da0:	b8 2e       	mov	r11, r24
     da2:	80 93 03 01 	sts	0x0103, r24
     da6:	87 cf       	rjmp	.-242    	; 0xcb6 <_ZL8nextNotev+0x54>
     da8:	ee 24       	eor	r14, r14
     daa:	e3 94       	inc	r14
     dac:	80 e0       	ldi	r24, 0x00	; 0
     dae:	47 c0       	rjmp	.+142    	; 0xe3e <_ZL8nextNotev+0x1dc>
     db0:	0e 94 d7 04 	call	0x9ae	; 0x9ae <_ZL9getNumberv>
     db4:	bc 01       	movw	r22, r24
     db6:	ce 01       	movw	r24, r28
     db8:	0e 94 49 11 	call	0x2292	; 0x2292 <__udivmodhi4>
     dbc:	cb 01       	movw	r24, r22
     dbe:	88 0f       	add	r24, r24
     dc0:	99 1f       	adc	r25, r25
     dc2:	53 e0       	ldi	r21, 0x03	; 3
     dc4:	66 0f       	add	r22, r22
     dc6:	77 1f       	adc	r23, r23
     dc8:	5a 95       	dec	r21
     dca:	e1 f7       	brne	.-8      	; 0xdc4 <_ZL8nextNotev+0x162>
     dcc:	86 0f       	add	r24, r22
     dce:	97 1f       	adc	r25, r23
     dd0:	90 93 07 01 	sts	0x0107, r25
     dd4:	80 93 06 01 	sts	0x0106, r24
     dd8:	60 91 04 01 	lds	r22, 0x0104
     ddc:	70 91 05 01 	lds	r23, 0x0105
     de0:	0e 94 49 11 	call	0x2292	; 0x2292 <__udivmodhi4>
     de4:	70 93 09 01 	sts	0x0109, r23
     de8:	60 93 08 01 	sts	0x0108, r22
     dec:	64 cf       	rjmp	.-312    	; 0xcb6 <_ZL8nextNotev+0x54>
     dee:	0e 94 d7 04 	call	0x9ae	; 0x9ae <_ZL9getNumberv>
     df2:	90 93 0b 01 	sts	0x010B, r25
     df6:	80 93 0a 01 	sts	0x010A, r24
     dfa:	5d cf       	rjmp	.-326    	; 0xcb6 <_ZL8nextNotev+0x54>
     dfc:	70 92 03 01 	sts	0x0103, r7
     e00:	10 93 07 01 	sts	0x0107, r17
     e04:	00 93 06 01 	sts	0x0106, r16
     e08:	f0 92 05 01 	sts	0x0105, r15
     e0c:	e0 92 04 01 	sts	0x0104, r14
     e10:	d0 92 09 01 	sts	0x0109, r13
     e14:	c0 92 08 01 	sts	0x0108, r12
     e18:	90 92 0b 01 	sts	0x010B, r9
     e1c:	80 92 0a 01 	sts	0x010A, r8
     e20:	10 92 4d 01 	sts	0x014D, r1
     e24:	44 e0       	ldi	r20, 0x04	; 4
     e26:	b4 2e       	mov	r11, r20
     e28:	46 cf       	rjmp	.-372    	; 0xcb6 <_ZL8nextNotev+0x54>
     e2a:	10 92 4c 01 	sts	0x014C, r1
     e2e:	10 92 4b 01 	sts	0x014B, r1
     e32:	63 c0       	rjmp	.+198    	; 0xefa <_ZL8nextNotev+0x298>
     e34:	ee 24       	eor	r14, r14
     e36:	89 e0       	ldi	r24, 0x09	; 9
     e38:	02 c0       	rjmp	.+4      	; 0xe3e <_ZL8nextNotev+0x1dc>
     e3a:	ee 24       	eor	r14, r14
     e3c:	8b e0       	ldi	r24, 0x0B	; 11
     e3e:	9c e0       	ldi	r25, 0x0C	; 12
     e40:	b9 9e       	mul	r11, r25
     e42:	b0 2c       	mov	r11, r0
     e44:	11 24       	eor	r1, r1
     e46:	b8 0e       	add	r11, r24
     e48:	0e 94 b5 04 	call	0x96a	; 0x96a <_ZL16currentCharacterv>
     e4c:	8b 32       	cpi	r24, 0x2B	; 43
     e4e:	11 f0       	breq	.+4      	; 0xe54 <_ZL8nextNotev+0x1f2>
     e50:	83 32       	cpi	r24, 0x23	; 35
     e52:	b9 f4       	brne	.+46     	; 0xe82 <_ZL8nextNotev+0x220>
     e54:	80 91 4b 01 	lds	r24, 0x014B
     e58:	90 91 4c 01 	lds	r25, 0x014C
     e5c:	01 96       	adiw	r24, 0x01	; 1
     e5e:	90 93 4c 01 	sts	0x014C, r25
     e62:	80 93 4b 01 	sts	0x014B, r24
     e66:	b3 94       	inc	r11
     e68:	ef cf       	rjmp	.-34     	; 0xe48 <_ZL8nextNotev+0x1e6>
     e6a:	80 91 4b 01 	lds	r24, 0x014B
     e6e:	90 91 4c 01 	lds	r25, 0x014C
     e72:	01 96       	adiw	r24, 0x01	; 1
     e74:	90 93 4c 01 	sts	0x014C, r25
     e78:	80 93 4b 01 	sts	0x014B, r24
     e7c:	ba 94       	dec	r11
     e7e:	0e 94 b5 04 	call	0x96a	; 0x96a <_ZL16currentCharacterv>
     e82:	8d 32       	cpi	r24, 0x2D	; 45
     e84:	91 f3       	breq	.-28     	; 0xe6a <_ZL8nextNotev+0x208>
     e86:	c0 91 08 01 	lds	r28, 0x0108
     e8a:	d0 91 09 01 	lds	r29, 0x0109
     e8e:	81 53       	subi	r24, 0x31	; 49
     e90:	88 30       	cpi	r24, 0x08	; 8
     e92:	58 f4       	brcc	.+22     	; 0xeaa <_ZL8nextNotev+0x248>
     e94:	c0 91 06 01 	lds	r28, 0x0106
     e98:	d0 91 07 01 	lds	r29, 0x0107
     e9c:	0e 94 d7 04 	call	0x9ae	; 0x9ae <_ZL9getNumberv>
     ea0:	bc 01       	movw	r22, r24
     ea2:	ce 01       	movw	r24, r28
     ea4:	0e 94 49 11 	call	0x2292	; 0x2292 <__udivmodhi4>
     ea8:	eb 01       	movw	r28, r22
     eaa:	8e 01       	movw	r16, r28
     eac:	0b c0       	rjmp	.+22     	; 0xec4 <_ZL8nextNotev+0x262>
     eae:	80 91 4b 01 	lds	r24, 0x014B
     eb2:	90 91 4c 01 	lds	r25, 0x014C
     eb6:	01 96       	adiw	r24, 0x01	; 1
     eb8:	90 93 4c 01 	sts	0x014C, r25
     ebc:	80 93 4b 01 	sts	0x014B, r24
     ec0:	c0 0f       	add	r28, r16
     ec2:	d1 1f       	adc	r29, r17
     ec4:	16 95       	lsr	r17
     ec6:	07 95       	ror	r16
     ec8:	0e 94 b5 04 	call	0x96a	; 0x96a <_ZL16currentCharacterv>
     ecc:	8e 32       	cpi	r24, 0x2E	; 46
     ece:	79 f3       	breq	.-34     	; 0xeae <_ZL8nextNotev+0x24c>
     ed0:	80 91 4d 01 	lds	r24, 0x014D
     ed4:	88 23       	and	r24, r24
     ed6:	39 f0       	breq	.+14     	; 0xee6 <_ZL8nextNotev+0x284>
     ed8:	ce 01       	movw	r24, r28
     eda:	96 95       	lsr	r25
     edc:	87 95       	ror	r24
     ede:	80 93 4e 01 	sts	0x014E, r24
     ee2:	c8 1b       	sub	r28, r24
     ee4:	d1 09       	sbc	r29, r1
     ee6:	ee 20       	and	r14, r14
     ee8:	11 f0       	breq	.+4      	; 0xeee <_ZL8nextNotev+0x28c>
     eea:	bb 24       	eor	r11, r11
     eec:	ba 94       	dec	r11
     eee:	8b 2d       	mov	r24, r11
     ef0:	be 01       	movw	r22, r28
     ef2:	40 91 0a 01 	lds	r20, 0x010A
     ef6:	0e 94 db 05 	call	0xbb6	; 0xbb6 <_ZN15OrangutanBuzzer8playNoteEhjh>
     efa:	cd b7       	in	r28, 0x3d	; 61
     efc:	de b7       	in	r29, 0x3e	; 62
     efe:	ed e0       	ldi	r30, 0x0D	; 13
     f00:	0c 94 de 11 	jmp	0x23bc	; 0x23bc <__epilogue_restores__+0xa>

00000f04 <__vector_13>:
     f04:	1f 92       	push	r1
     f06:	0f 92       	push	r0
     f08:	0f b6       	in	r0, 0x3f	; 63
     f0a:	0f 92       	push	r0
     f0c:	11 24       	eor	r1, r1
     f0e:	2f 93       	push	r18
     f10:	3f 93       	push	r19
     f12:	4f 93       	push	r20
     f14:	5f 93       	push	r21
     f16:	6f 93       	push	r22
     f18:	7f 93       	push	r23
     f1a:	8f 93       	push	r24
     f1c:	9f 93       	push	r25
     f1e:	af 93       	push	r26
     f20:	bf 93       	push	r27
     f22:	ef 93       	push	r30
     f24:	ff 93       	push	r31
     f26:	80 91 51 01 	lds	r24, 0x0151
     f2a:	90 91 52 01 	lds	r25, 0x0152
     f2e:	9c 01       	movw	r18, r24
     f30:	21 50       	subi	r18, 0x01	; 1
     f32:	30 40       	sbci	r19, 0x00	; 0
     f34:	30 93 52 01 	sts	0x0152, r19
     f38:	20 93 51 01 	sts	0x0151, r18
     f3c:	00 97       	sbiw	r24, 0x00	; 0
     f3e:	11 f5       	brne	.+68     	; 0xf84 <__vector_13+0x80>
     f40:	10 92 6f 00 	sts	0x006F, r1
     f44:	78 94       	sei
     f46:	80 91 81 00 	lds	r24, 0x0081
     f4a:	88 7f       	andi	r24, 0xF8	; 248
     f4c:	81 60       	ori	r24, 0x01	; 1
     f4e:	80 93 81 00 	sts	0x0081, r24
     f52:	80 e1       	ldi	r24, 0x10	; 16
     f54:	97 e2       	ldi	r25, 0x27	; 39
     f56:	90 93 89 00 	sts	0x0089, r25
     f5a:	80 93 88 00 	sts	0x0088, r24
     f5e:	10 92 8b 00 	sts	0x008B, r1
     f62:	10 92 8a 00 	sts	0x008A, r1
     f66:	81 e0       	ldi	r24, 0x01	; 1
     f68:	80 93 02 01 	sts	0x0102, r24
     f6c:	80 91 4b 01 	lds	r24, 0x014B
     f70:	90 91 4c 01 	lds	r25, 0x014C
     f74:	00 97       	sbiw	r24, 0x00	; 0
     f76:	31 f0       	breq	.+12     	; 0xf84 <__vector_13+0x80>
     f78:	80 91 50 01 	lds	r24, 0x0150
     f7c:	88 23       	and	r24, r24
     f7e:	11 f4       	brne	.+4      	; 0xf84 <__vector_13+0x80>
     f80:	0e 94 31 06 	call	0xc62	; 0xc62 <_ZL8nextNotev>
     f84:	ff 91       	pop	r31
     f86:	ef 91       	pop	r30
     f88:	bf 91       	pop	r27
     f8a:	af 91       	pop	r26
     f8c:	9f 91       	pop	r25
     f8e:	8f 91       	pop	r24
     f90:	7f 91       	pop	r23
     f92:	6f 91       	pop	r22
     f94:	5f 91       	pop	r21
     f96:	4f 91       	pop	r20
     f98:	3f 91       	pop	r19
     f9a:	2f 91       	pop	r18
     f9c:	0f 90       	pop	r0
     f9e:	0f be       	out	0x3f, r0	; 63
     fa0:	0f 90       	pop	r0
     fa2:	1f 90       	pop	r1
     fa4:	18 95       	reti

00000fa6 <_ZN15OrangutanBuzzer9isPlayingEv>:
     fa6:	80 91 02 01 	lds	r24, 0x0102
     faa:	88 23       	and	r24, r24
     fac:	51 f0       	breq	.+20     	; 0xfc2 <_ZN15OrangutanBuzzer9isPlayingEv+0x1c>
     fae:	81 e0       	ldi	r24, 0x01	; 1
     fb0:	20 91 4b 01 	lds	r18, 0x014B
     fb4:	30 91 4c 01 	lds	r19, 0x014C
     fb8:	21 15       	cp	r18, r1
     fba:	31 05       	cpc	r19, r1
     fbc:	19 f4       	brne	.+6      	; 0xfc4 <_ZN15OrangutanBuzzer9isPlayingEv+0x1e>
     fbe:	80 e0       	ldi	r24, 0x00	; 0
     fc0:	08 95       	ret
     fc2:	81 e0       	ldi	r24, 0x01	; 1
     fc4:	08 95       	ret

00000fc6 <is_playing>:
     fc6:	0e 94 d3 07 	call	0xfa6	; 0xfa6 <_ZN15OrangutanBuzzer9isPlayingEv>
     fca:	08 95       	ret

00000fcc <_ZN15OrangutanBuzzer20playFromProgramSpaceEPKc>:
     fcc:	10 92 6f 00 	sts	0x006F, r1
     fd0:	90 93 4c 01 	sts	0x014C, r25
     fd4:	80 93 4b 01 	sts	0x014B, r24
     fd8:	81 e0       	ldi	r24, 0x01	; 1
     fda:	80 93 4f 01 	sts	0x014F, r24
     fde:	10 92 4e 01 	sts	0x014E, r1
     fe2:	0e 94 31 06 	call	0xc62	; 0xc62 <_ZL8nextNotev>
     fe6:	08 95       	ret

00000fe8 <play_from_program_space>:
     fe8:	0e 94 e6 07 	call	0xfcc	; 0xfcc <_ZN15OrangutanBuzzer20playFromProgramSpaceEPKc>
     fec:	08 95       	ret

00000fee <delayMicroseconds.clone.0>:
     fee:	81 e0       	ldi	r24, 0x01	; 1
     ff0:	90 e0       	ldi	r25, 0x00	; 0
     ff2:	6f 93       	push	r22
     ff4:	64 e0       	ldi	r22, 0x04	; 4
     ff6:	6a 95       	dec	r22
     ff8:	f1 f7       	brne	.-4      	; 0xff6 <delayMicroseconds.clone.0+0x8>
     ffa:	6f 91       	pop	r22
     ffc:	01 97       	sbiw	r24, 0x01	; 1
     ffe:	c9 f7       	brne	.-14     	; 0xff2 <delayMicroseconds.clone.0+0x4>
    1000:	08 95       	ret

00001002 <_ZN12OrangutanLCD8busyWaitEv>:
    1002:	0f 93       	push	r16
    1004:	1f 93       	push	r17
    1006:	cf 93       	push	r28
    1008:	df 93       	push	r29
    100a:	1a b1       	in	r17, 0x0a	; 10
    100c:	57 98       	cbi	0x0a, 7	; 10
    100e:	5a 98       	cbi	0x0b, 2	; 11
    1010:	28 9a       	sbi	0x05, 0	; 5
    1012:	c0 e0       	ldi	r28, 0x00	; 0
    1014:	d0 e0       	ldi	r29, 0x00	; 0
    1016:	0e 94 f7 07 	call	0xfee	; 0xfee <delayMicroseconds.clone.0>
    101a:	5c 9a       	sbi	0x0b, 4	; 11
    101c:	0e 94 f7 07 	call	0xfee	; 0xfee <delayMicroseconds.clone.0>
    1020:	09 b1       	in	r16, 0x09	; 9
    1022:	5c 98       	cbi	0x0b, 4	; 11
    1024:	0e 94 f7 07 	call	0xfee	; 0xfee <delayMicroseconds.clone.0>
    1028:	5c 9a       	sbi	0x0b, 4	; 11
    102a:	0e 94 f7 07 	call	0xfee	; 0xfee <delayMicroseconds.clone.0>
    102e:	5c 98       	cbi	0x0b, 4	; 11
    1030:	07 ff       	sbrs	r16, 7
    1032:	11 c0       	rjmp	.+34     	; 0x1056 <_ZN12OrangutanLCD8busyWaitEv+0x54>
    1034:	24 96       	adiw	r28, 0x04	; 4
    1036:	9e 01       	movw	r18, r28
    1038:	40 e0       	ldi	r20, 0x00	; 0
    103a:	50 e0       	ldi	r21, 0x00	; 0
    103c:	80 91 57 01 	lds	r24, 0x0157
    1040:	90 91 58 01 	lds	r25, 0x0158
    1044:	a0 91 59 01 	lds	r26, 0x0159
    1048:	b0 91 5a 01 	lds	r27, 0x015A
    104c:	28 17       	cp	r18, r24
    104e:	39 07       	cpc	r19, r25
    1050:	4a 07       	cpc	r20, r26
    1052:	5b 07       	cpc	r21, r27
    1054:	00 f3       	brcs	.-64     	; 0x1016 <_ZN12OrangutanLCD8busyWaitEv+0x14>
    1056:	1a b9       	out	0x0a, r17	; 10
    1058:	df 91       	pop	r29
    105a:	cf 91       	pop	r28
    105c:	1f 91       	pop	r17
    105e:	0f 91       	pop	r16
    1060:	08 95       	ret

00001062 <_ZN12OrangutanLCD8sendDataEh>:
    1062:	65 b1       	in	r22, 0x05	; 5
    1064:	90 e0       	ldi	r25, 0x00	; 0
    1066:	ac 01       	movw	r20, r24
    1068:	41 70       	andi	r20, 0x01	; 1
    106a:	50 70       	andi	r21, 0x00	; 0
    106c:	44 0f       	add	r20, r20
    106e:	55 1f       	adc	r21, r21
    1070:	9c 01       	movw	r18, r24
    1072:	26 70       	andi	r18, 0x06	; 6
    1074:	30 70       	andi	r19, 0x00	; 0
    1076:	53 e0       	ldi	r21, 0x03	; 3
    1078:	22 0f       	add	r18, r18
    107a:	33 1f       	adc	r19, r19
    107c:	5a 95       	dec	r21
    107e:	e1 f7       	brne	.-8      	; 0x1078 <_ZN12OrangutanLCD8sendDataEh+0x16>
    1080:	24 2b       	or	r18, r20
    1082:	6d 7c       	andi	r22, 0xCD	; 205
    1084:	26 2b       	or	r18, r22
    1086:	25 b9       	out	0x05, r18	; 5
    1088:	2b b1       	in	r18, 0x0b	; 11
    108a:	88 70       	andi	r24, 0x08	; 8
    108c:	90 70       	andi	r25, 0x00	; 0
    108e:	34 e0       	ldi	r19, 0x04	; 4
    1090:	88 0f       	add	r24, r24
    1092:	99 1f       	adc	r25, r25
    1094:	3a 95       	dec	r19
    1096:	e1 f7       	brne	.-8      	; 0x1090 <_ZN12OrangutanLCD8sendDataEh+0x2e>
    1098:	2f 77       	andi	r18, 0x7F	; 127
    109a:	28 2b       	or	r18, r24
    109c:	2b b9       	out	0x0b, r18	; 11
    109e:	5c 9a       	sbi	0x0b, 4	; 11
    10a0:	0e 94 f7 07 	call	0xfee	; 0xfee <delayMicroseconds.clone.0>
    10a4:	5c 98       	cbi	0x0b, 4	; 11
    10a6:	0e 94 f7 07 	call	0xfee	; 0xfee <delayMicroseconds.clone.0>
    10aa:	08 95       	ret

000010ac <_ZN12OrangutanLCD4sendEhhh>:
    10ac:	a2 e0       	ldi	r26, 0x02	; 2
    10ae:	b0 e0       	ldi	r27, 0x00	; 0
    10b0:	ec e5       	ldi	r30, 0x5C	; 92
    10b2:	f8 e0       	ldi	r31, 0x08	; 8
    10b4:	0c 94 c8 11 	jmp	0x2390	; 0x2390 <__prologue_saves__+0x16>
    10b8:	18 2f       	mov	r17, r24
    10ba:	4a 83       	std	Y+2, r20	; 0x02
    10bc:	69 83       	std	Y+1, r22	; 0x01
    10be:	0e 94 01 09 	call	0x1202	; 0x1202 <_ZN12OrangutanLCD4initEv>
    10c2:	0e 94 01 08 	call	0x1002	; 0x1002 <_ZN12OrangutanLCD8busyWaitEv>
    10c6:	f4 b0       	in	r15, 0x04	; 4
    10c8:	05 b1       	in	r16, 0x05	; 5
    10ca:	da b0       	in	r13, 0x0a	; 10
    10cc:	eb b0       	in	r14, 0x0b	; 11
    10ce:	28 98       	cbi	0x05, 0	; 5
    10d0:	69 81       	ldd	r22, Y+1	; 0x01
    10d2:	4a 81       	ldd	r20, Y+2	; 0x02
    10d4:	66 23       	and	r22, r22
    10d6:	11 f0       	breq	.+4      	; 0x10dc <_ZN12OrangutanLCD4sendEhhh+0x30>
    10d8:	5a 9a       	sbi	0x0b, 2	; 11
    10da:	01 c0       	rjmp	.+2      	; 0x10de <_ZN12OrangutanLCD4sendEhhh+0x32>
    10dc:	5a 98       	cbi	0x0b, 2	; 11
    10de:	84 b1       	in	r24, 0x04	; 4
    10e0:	82 63       	ori	r24, 0x32	; 50
    10e2:	84 b9       	out	0x04, r24	; 4
    10e4:	57 9a       	sbi	0x0a, 7	; 10
    10e6:	41 30       	cpi	r20, 0x01	; 1
    10e8:	29 f0       	breq	.+10     	; 0x10f4 <_ZN12OrangutanLCD4sendEhhh+0x48>
    10ea:	81 2f       	mov	r24, r17
    10ec:	82 95       	swap	r24
    10ee:	8f 70       	andi	r24, 0x0F	; 15
    10f0:	0e 94 31 08 	call	0x1062	; 0x1062 <_ZN12OrangutanLCD8sendDataEh>
    10f4:	81 2f       	mov	r24, r17
    10f6:	8f 70       	andi	r24, 0x0F	; 15
    10f8:	0e 94 31 08 	call	0x1062	; 0x1062 <_ZN12OrangutanLCD8sendDataEh>
    10fc:	da b8       	out	0x0a, r13	; 10
    10fe:	eb b8       	out	0x0b, r14	; 11
    1100:	f4 b8       	out	0x04, r15	; 4
    1102:	05 b9       	out	0x05, r16	; 5
    1104:	22 96       	adiw	r28, 0x02	; 2
    1106:	e7 e0       	ldi	r30, 0x07	; 7
    1108:	0c 94 e4 11 	jmp	0x23c8	; 0x23c8 <__epilogue_restores__+0x16>

0000110c <_ZN12OrangutanLCD8send_cmdEh>:
    110c:	60 e0       	ldi	r22, 0x00	; 0
    110e:	42 e0       	ldi	r20, 0x02	; 2
    1110:	0e 94 56 08 	call	0x10ac	; 0x10ac <_ZN12OrangutanLCD4sendEhhh>
    1114:	08 95       	ret

00001116 <_ZN12OrangutanLCD9send_dataEh>:
    1116:	61 e0       	ldi	r22, 0x01	; 1
    1118:	42 e0       	ldi	r20, 0x02	; 2
    111a:	0e 94 56 08 	call	0x10ac	; 0x10ac <_ZN12OrangutanLCD4sendEhhh>
    111e:	08 95       	ret

00001120 <_ZN12OrangutanLCD19loadCustomCharacterEPKch>:
    1120:	ef 92       	push	r14
    1122:	ff 92       	push	r15
    1124:	1f 93       	push	r17
    1126:	df 93       	push	r29
    1128:	cf 93       	push	r28
    112a:	0f 92       	push	r0
    112c:	cd b7       	in	r28, 0x3d	; 61
    112e:	de b7       	in	r29, 0x3e	; 62
    1130:	66 0f       	add	r22, r22
    1132:	66 0f       	add	r22, r22
    1134:	66 0f       	add	r22, r22
    1136:	48 2f       	mov	r20, r24
    1138:	59 2f       	mov	r21, r25
    113a:	7a 01       	movw	r14, r20
    113c:	10 e0       	ldi	r17, 0x00	; 0
    113e:	81 2f       	mov	r24, r17
    1140:	86 0f       	add	r24, r22
    1142:	80 64       	ori	r24, 0x40	; 64
    1144:	69 83       	std	Y+1, r22	; 0x01
    1146:	0e 94 86 08 	call	0x110c	; 0x110c <_ZN12OrangutanLCD8send_cmdEh>
    114a:	f7 01       	movw	r30, r14
    114c:	84 91       	lpm	r24, Z
    114e:	0e 94 8b 08 	call	0x1116	; 0x1116 <_ZN12OrangutanLCD9send_dataEh>
    1152:	1f 5f       	subi	r17, 0xFF	; 255
    1154:	08 94       	sec
    1156:	e1 1c       	adc	r14, r1
    1158:	f1 1c       	adc	r15, r1
    115a:	69 81       	ldd	r22, Y+1	; 0x01
    115c:	18 30       	cpi	r17, 0x08	; 8
    115e:	79 f7       	brne	.-34     	; 0x113e <_ZN12OrangutanLCD19loadCustomCharacterEPKch+0x1e>
    1160:	0f 90       	pop	r0
    1162:	cf 91       	pop	r28
    1164:	df 91       	pop	r29
    1166:	1f 91       	pop	r17
    1168:	ff 90       	pop	r15
    116a:	ef 90       	pop	r14
    116c:	08 95       	ret

0000116e <lcd_load_custom_character>:
    116e:	0e 94 90 08 	call	0x1120	; 0x1120 <_ZN12OrangutanLCD19loadCustomCharacterEPKch>
    1172:	08 95       	ret

00001174 <print_character>:
    1174:	0e 94 8b 08 	call	0x1116	; 0x1116 <_ZN12OrangutanLCD9send_dataEh>
    1178:	08 95       	ret

0000117a <_ZN12OrangutanLCD13send_4bit_cmdEh>:
    117a:	60 e0       	ldi	r22, 0x00	; 0
    117c:	41 e0       	ldi	r20, 0x01	; 1
    117e:	0e 94 56 08 	call	0x10ac	; 0x10ac <_ZN12OrangutanLCD4sendEhhh>
    1182:	08 95       	ret

00001184 <_ZN12OrangutanLCD5init2Ev>:
    1184:	80 e1       	ldi	r24, 0x10	; 16
    1186:	97 e2       	ldi	r25, 0x27	; 39
    1188:	a0 e0       	ldi	r26, 0x00	; 0
    118a:	b0 e0       	ldi	r27, 0x00	; 0
    118c:	80 93 57 01 	sts	0x0157, r24
    1190:	90 93 58 01 	sts	0x0158, r25
    1194:	a0 93 59 01 	sts	0x0159, r26
    1198:	b0 93 5a 01 	sts	0x015A, r27
    119c:	52 9a       	sbi	0x0a, 2	; 10
    119e:	20 9a       	sbi	0x04, 0	; 4
    11a0:	54 9a       	sbi	0x0a, 4	; 10
    11a2:	8e e1       	ldi	r24, 0x1E	; 30
    11a4:	90 e0       	ldi	r25, 0x00	; 0
    11a6:	0e 94 7f 0b 	call	0x16fe	; 0x16fe <delay_ms>
    11aa:	83 e0       	ldi	r24, 0x03	; 3
    11ac:	0e 94 bd 08 	call	0x117a	; 0x117a <_ZN12OrangutanLCD13send_4bit_cmdEh>
    11b0:	86 e0       	ldi	r24, 0x06	; 6
    11b2:	90 e0       	ldi	r25, 0x00	; 0
    11b4:	0e 94 7f 0b 	call	0x16fe	; 0x16fe <delay_ms>
    11b8:	83 e0       	ldi	r24, 0x03	; 3
    11ba:	0e 94 bd 08 	call	0x117a	; 0x117a <_ZN12OrangutanLCD13send_4bit_cmdEh>
    11be:	82 e0       	ldi	r24, 0x02	; 2
    11c0:	90 e0       	ldi	r25, 0x00	; 0
    11c2:	0e 94 7f 0b 	call	0x16fe	; 0x16fe <delay_ms>
    11c6:	83 e0       	ldi	r24, 0x03	; 3
    11c8:	0e 94 bd 08 	call	0x117a	; 0x117a <_ZN12OrangutanLCD13send_4bit_cmdEh>
    11cc:	82 e0       	ldi	r24, 0x02	; 2
    11ce:	90 e0       	ldi	r25, 0x00	; 0
    11d0:	0e 94 7f 0b 	call	0x16fe	; 0x16fe <delay_ms>
    11d4:	82 e0       	ldi	r24, 0x02	; 2
    11d6:	0e 94 bd 08 	call	0x117a	; 0x117a <_ZN12OrangutanLCD13send_4bit_cmdEh>
    11da:	82 e0       	ldi	r24, 0x02	; 2
    11dc:	90 e0       	ldi	r25, 0x00	; 0
    11de:	0e 94 7f 0b 	call	0x16fe	; 0x16fe <delay_ms>
    11e2:	88 e2       	ldi	r24, 0x28	; 40
    11e4:	0e 94 86 08 	call	0x110c	; 0x110c <_ZN12OrangutanLCD8send_cmdEh>
    11e8:	88 e0       	ldi	r24, 0x08	; 8
    11ea:	0e 94 86 08 	call	0x110c	; 0x110c <_ZN12OrangutanLCD8send_cmdEh>
    11ee:	81 e0       	ldi	r24, 0x01	; 1
    11f0:	0e 94 86 08 	call	0x110c	; 0x110c <_ZN12OrangutanLCD8send_cmdEh>
    11f4:	86 e0       	ldi	r24, 0x06	; 6
    11f6:	0e 94 86 08 	call	0x110c	; 0x110c <_ZN12OrangutanLCD8send_cmdEh>
    11fa:	8c e0       	ldi	r24, 0x0C	; 12
    11fc:	0e 94 86 08 	call	0x110c	; 0x110c <_ZN12OrangutanLCD8send_cmdEh>
    1200:	08 95       	ret

00001202 <_ZN12OrangutanLCD4initEv>:
    1202:	80 91 5b 01 	lds	r24, 0x015B
    1206:	88 23       	and	r24, r24
    1208:	29 f4       	brne	.+10     	; 0x1214 <_ZN12OrangutanLCD4initEv+0x12>
    120a:	81 e0       	ldi	r24, 0x01	; 1
    120c:	80 93 5b 01 	sts	0x015B, r24
    1210:	0e 94 c2 08 	call	0x1184	; 0x1184 <_ZN12OrangutanLCD5init2Ev>
    1214:	08 95       	ret

00001216 <_ZN12OrangutanLCD5clearEv>:
    1216:	81 e0       	ldi	r24, 0x01	; 1
    1218:	0e 94 86 08 	call	0x110c	; 0x110c <_ZN12OrangutanLCD8send_cmdEh>
    121c:	80 91 53 01 	lds	r24, 0x0153
    1220:	90 91 54 01 	lds	r25, 0x0154
    1224:	00 97       	sbiw	r24, 0x00	; 0
    1226:	11 f1       	breq	.+68     	; 0x126c <_ZN12OrangutanLCD5clearEv+0x56>
    1228:	a0 e0       	ldi	r26, 0x00	; 0
    122a:	b0 e2       	ldi	r27, 0x20	; 32
    122c:	08 c0       	rjmp	.+16     	; 0x123e <_ZN12OrangutanLCD5clearEv+0x28>
    122e:	e0 91 53 01 	lds	r30, 0x0153
    1232:	f0 91 54 01 	lds	r31, 0x0154
    1236:	e2 0f       	add	r30, r18
    1238:	f3 1f       	adc	r31, r19
    123a:	b0 83       	st	Z, r27
    123c:	af 5f       	subi	r26, 0xFF	; 255
    123e:	2a 2f       	mov	r18, r26
    1240:	30 e0       	ldi	r19, 0x00	; 0
    1242:	80 91 24 01 	lds	r24, 0x0124
    1246:	90 e0       	ldi	r25, 0x00	; 0
    1248:	01 97       	sbiw	r24, 0x01	; 1
    124a:	60 91 25 01 	lds	r22, 0x0125
    124e:	70 e0       	ldi	r23, 0x00	; 0
    1250:	86 9f       	mul	r24, r22
    1252:	a0 01       	movw	r20, r0
    1254:	87 9f       	mul	r24, r23
    1256:	50 0d       	add	r21, r0
    1258:	96 9f       	mul	r25, r22
    125a:	50 0d       	add	r21, r0
    125c:	11 24       	eor	r1, r1
    125e:	24 17       	cp	r18, r20
    1260:	35 07       	cpc	r19, r21
    1262:	2c f3       	brlt	.-54     	; 0x122e <_ZN12OrangutanLCD5clearEv+0x18>
    1264:	10 92 56 01 	sts	0x0156, r1
    1268:	10 92 55 01 	sts	0x0155, r1
    126c:	08 95       	ret

0000126e <clear>:
    126e:	0e 94 0b 09 	call	0x1216	; 0x1216 <_ZN12OrangutanLCD5clearEv>
    1272:	08 95       	ret

00001274 <_ZN12OrangutanLCD5printEPKc>:
    1274:	ef 92       	push	r14
    1276:	ff 92       	push	r15
    1278:	cf 93       	push	r28
    127a:	df 93       	push	r29
    127c:	e8 2e       	mov	r14, r24
    127e:	e7 01       	movw	r28, r14
    1280:	7e 01       	movw	r14, r28
    1282:	f9 2e       	mov	r15, r25
    1284:	e7 01       	movw	r28, r14
    1286:	02 c0       	rjmp	.+4      	; 0x128c <_ZN12OrangutanLCD5printEPKc+0x18>
    1288:	0e 94 8b 08 	call	0x1116	; 0x1116 <_ZN12OrangutanLCD9send_dataEh>
    128c:	89 91       	ld	r24, Y+
    128e:	88 23       	and	r24, r24
    1290:	d9 f7       	brne	.-10     	; 0x1288 <_ZN12OrangutanLCD5printEPKc+0x14>
    1292:	df 91       	pop	r29
    1294:	cf 91       	pop	r28
    1296:	ff 90       	pop	r15
    1298:	ef 90       	pop	r14
    129a:	08 95       	ret

0000129c <print>:
    129c:	0e 94 3a 09 	call	0x1274	; 0x1274 <_ZN12OrangutanLCD5printEPKc>
    12a0:	08 95       	ret

000012a2 <_ZN12OrangutanLCD21printFromProgramSpaceEPKc>:
    12a2:	cf 93       	push	r28
    12a4:	df 93       	push	r29
    12a6:	ec 01       	movw	r28, r24
    12a8:	03 c0       	rjmp	.+6      	; 0x12b0 <_ZN12OrangutanLCD21printFromProgramSpaceEPKc+0xe>
    12aa:	0e 94 8b 08 	call	0x1116	; 0x1116 <_ZN12OrangutanLCD9send_dataEh>
    12ae:	21 96       	adiw	r28, 0x01	; 1
    12b0:	fe 01       	movw	r30, r28
    12b2:	84 91       	lpm	r24, Z
    12b4:	88 23       	and	r24, r24
    12b6:	c9 f7       	brne	.-14     	; 0x12aa <_ZN12OrangutanLCD21printFromProgramSpaceEPKc+0x8>
    12b8:	df 91       	pop	r29
    12ba:	cf 91       	pop	r28
    12bc:	08 95       	ret

000012be <print_from_program_space>:
    12be:	0e 94 51 09 	call	0x12a2	; 0x12a2 <_ZN12OrangutanLCD21printFromProgramSpaceEPKc>
    12c2:	08 95       	ret

000012c4 <_ZN12OrangutanLCD5printEm>:
    12c4:	aa e0       	ldi	r26, 0x0A	; 10
    12c6:	b0 e0       	ldi	r27, 0x00	; 0
    12c8:	e8 e6       	ldi	r30, 0x68	; 104
    12ca:	f9 e0       	ldi	r31, 0x09	; 9
    12cc:	0c 94 c5 11 	jmp	0x238a	; 0x238a <__prologue_saves__+0x10>
    12d0:	9b 01       	movw	r18, r22
    12d2:	ac 01       	movw	r20, r24
    12d4:	1a e0       	ldi	r17, 0x0A	; 10
    12d6:	ea e0       	ldi	r30, 0x0A	; 10
    12d8:	ce 2e       	mov	r12, r30
    12da:	d1 2c       	mov	r13, r1
    12dc:	e1 2c       	mov	r14, r1
    12de:	f1 2c       	mov	r15, r1
    12e0:	5e 01       	movw	r10, r28
    12e2:	08 94       	sec
    12e4:	a1 1c       	adc	r10, r1
    12e6:	b1 1c       	adc	r11, r1
    12e8:	02 2f       	mov	r16, r18
    12ea:	ca 01       	movw	r24, r20
    12ec:	b9 01       	movw	r22, r18
    12ee:	a7 01       	movw	r20, r14
    12f0:	96 01       	movw	r18, r12
    12f2:	0e 94 71 11 	call	0x22e2	; 0x22e2 <__udivmodsi4>
    12f6:	11 50       	subi	r17, 0x01	; 1
    12f8:	f5 01       	movw	r30, r10
    12fa:	e1 0f       	add	r30, r17
    12fc:	f1 1d       	adc	r31, r1
    12fe:	00 5d       	subi	r16, 0xD0	; 208
    1300:	92 2f       	mov	r25, r18
    1302:	99 0f       	add	r25, r25
    1304:	89 2f       	mov	r24, r25
    1306:	88 0f       	add	r24, r24
    1308:	88 0f       	add	r24, r24
    130a:	89 0f       	add	r24, r25
    130c:	08 1b       	sub	r16, r24
    130e:	00 83       	st	Z, r16
    1310:	21 15       	cp	r18, r1
    1312:	31 05       	cpc	r19, r1
    1314:	41 05       	cpc	r20, r1
    1316:	51 05       	cpc	r21, r1
    1318:	39 f7       	brne	.-50     	; 0x12e8 <_ZN12OrangutanLCD5printEm+0x24>
    131a:	08 c0       	rjmp	.+16     	; 0x132c <_ZN12OrangutanLCD5printEm+0x68>
    131c:	f6 01       	movw	r30, r12
    131e:	e1 0f       	add	r30, r17
    1320:	f1 1d       	adc	r31, r1
    1322:	80 81       	ld	r24, Z
    1324:	0e 94 8b 08 	call	0x1116	; 0x1116 <_ZN12OrangutanLCD9send_dataEh>
    1328:	1f 5f       	subi	r17, 0xFF	; 255
    132a:	04 c0       	rjmp	.+8      	; 0x1334 <_ZN12OrangutanLCD5printEm+0x70>
    132c:	6e 01       	movw	r12, r28
    132e:	08 94       	sec
    1330:	c1 1c       	adc	r12, r1
    1332:	d1 1c       	adc	r13, r1
    1334:	1a 30       	cpi	r17, 0x0A	; 10
    1336:	90 f3       	brcs	.-28     	; 0x131c <_ZN12OrangutanLCD5printEm+0x58>
    1338:	2a 96       	adiw	r28, 0x0a	; 10
    133a:	ea e0       	ldi	r30, 0x0A	; 10
    133c:	0c 94 e1 11 	jmp	0x23c2	; 0x23c2 <__epilogue_restores__+0x10>

00001340 <_ZN12OrangutanLCD5printEl>:
    1340:	ef 92       	push	r14
    1342:	ff 92       	push	r15
    1344:	0f 93       	push	r16
    1346:	1f 93       	push	r17
    1348:	7b 01       	movw	r14, r22
    134a:	8c 01       	movw	r16, r24
    134c:	97 ff       	sbrs	r25, 7
    134e:	0b c0       	rjmp	.+22     	; 0x1366 <_ZN12OrangutanLCD5printEl+0x26>
    1350:	10 95       	com	r17
    1352:	00 95       	com	r16
    1354:	f0 94       	com	r15
    1356:	e0 94       	com	r14
    1358:	e1 1c       	adc	r14, r1
    135a:	f1 1c       	adc	r15, r1
    135c:	01 1d       	adc	r16, r1
    135e:	11 1d       	adc	r17, r1
    1360:	8d e2       	ldi	r24, 0x2D	; 45
    1362:	0e 94 8b 08 	call	0x1116	; 0x1116 <_ZN12OrangutanLCD9send_dataEh>
    1366:	c8 01       	movw	r24, r16
    1368:	b7 01       	movw	r22, r14
    136a:	0e 94 62 09 	call	0x12c4	; 0x12c4 <_ZN12OrangutanLCD5printEm>
    136e:	1f 91       	pop	r17
    1370:	0f 91       	pop	r16
    1372:	ff 90       	pop	r15
    1374:	ef 90       	pop	r14
    1376:	08 95       	ret

00001378 <print_long>:
    1378:	0e 94 a0 09 	call	0x1340	; 0x1340 <_ZN12OrangutanLCD5printEl>
    137c:	08 95       	ret

0000137e <_ZN12OrangutanLCD6gotoXYEhh>:
    137e:	a5 e0       	ldi	r26, 0x05	; 5
    1380:	b0 e0       	ldi	r27, 0x00	; 0
    1382:	e5 ec       	ldi	r30, 0xC5	; 197
    1384:	f9 e0       	ldi	r31, 0x09	; 9
    1386:	0c 94 cc 11 	jmp	0x2398	; 0x2398 <__prologue_saves__+0x1e>
    138a:	18 2f       	mov	r17, r24
    138c:	80 e8       	ldi	r24, 0x80	; 128
    138e:	89 83       	std	Y+1, r24	; 0x01
    1390:	80 ec       	ldi	r24, 0xC0	; 192
    1392:	8a 83       	std	Y+2, r24	; 0x02
    1394:	84 e9       	ldi	r24, 0x94	; 148
    1396:	8b 83       	std	Y+3, r24	; 0x03
    1398:	84 ed       	ldi	r24, 0xD4	; 212
    139a:	8c 83       	std	Y+4, r24	; 0x04
    139c:	fe 01       	movw	r30, r28
    139e:	e6 0f       	add	r30, r22
    13a0:	f1 1d       	adc	r31, r1
    13a2:	81 81       	ldd	r24, Z+1	; 0x01
    13a4:	81 0f       	add	r24, r17
    13a6:	6d 83       	std	Y+5, r22	; 0x05
    13a8:	0e 94 86 08 	call	0x110c	; 0x110c <_ZN12OrangutanLCD8send_cmdEh>
    13ac:	10 93 56 01 	sts	0x0156, r17
    13b0:	6d 81       	ldd	r22, Y+5	; 0x05
    13b2:	60 93 55 01 	sts	0x0155, r22
    13b6:	25 96       	adiw	r28, 0x05	; 5
    13b8:	e3 e0       	ldi	r30, 0x03	; 3
    13ba:	0c 94 e8 11 	jmp	0x23d0	; 0x23d0 <__epilogue_restores__+0x1e>

000013be <lcd_goto_xy>:
    13be:	0e 94 bf 09 	call	0x137e	; 0x137e <_ZN12OrangutanLCD6gotoXYEhh>
    13c2:	08 95       	ret

000013c4 <_ZN16OrangutanDigital14getIORegistersEP8IOStructh>:
    13c4:	fc 01       	movw	r30, r24
    13c6:	11 82       	std	Z+1, r1	; 0x01
    13c8:	10 82       	st	Z, r1
    13ca:	13 82       	std	Z+3, r1	; 0x03
    13cc:	12 82       	std	Z+2, r1	; 0x02
    13ce:	15 82       	std	Z+5, r1	; 0x05
    13d0:	14 82       	std	Z+4, r1	; 0x04
    13d2:	16 82       	std	Z+6, r1	; 0x06
    13d4:	68 30       	cpi	r22, 0x08	; 8
    13d6:	68 f4       	brcc	.+26     	; 0x13f2 <_ZN16OrangutanDigital14getIORegistersEP8IOStructh+0x2e>
    13d8:	89 e2       	ldi	r24, 0x29	; 41
    13da:	90 e0       	ldi	r25, 0x00	; 0
    13dc:	91 83       	std	Z+1, r25	; 0x01
    13de:	80 83       	st	Z, r24
    13e0:	8b e2       	ldi	r24, 0x2B	; 43
    13e2:	90 e0       	ldi	r25, 0x00	; 0
    13e4:	93 83       	std	Z+3, r25	; 0x03
    13e6:	82 83       	std	Z+2, r24	; 0x02
    13e8:	8a e2       	ldi	r24, 0x2A	; 42
    13ea:	90 e0       	ldi	r25, 0x00	; 0
    13ec:	95 83       	std	Z+5, r25	; 0x05
    13ee:	84 83       	std	Z+4, r24	; 0x04
    13f0:	11 c0       	rjmp	.+34     	; 0x1414 <_ZN16OrangutanDigital14getIORegistersEP8IOStructh+0x50>
    13f2:	6e 30       	cpi	r22, 0x0E	; 14
    13f4:	c0 f4       	brcc	.+48     	; 0x1426 <_ZN16OrangutanDigital14getIORegistersEP8IOStructh+0x62>
    13f6:	83 e2       	ldi	r24, 0x23	; 35
    13f8:	90 e0       	ldi	r25, 0x00	; 0
    13fa:	91 83       	std	Z+1, r25	; 0x01
    13fc:	80 83       	st	Z, r24
    13fe:	85 e2       	ldi	r24, 0x25	; 37
    1400:	90 e0       	ldi	r25, 0x00	; 0
    1402:	93 83       	std	Z+3, r25	; 0x03
    1404:	82 83       	std	Z+2, r24	; 0x02
    1406:	84 e2       	ldi	r24, 0x24	; 36
    1408:	90 e0       	ldi	r25, 0x00	; 0
    140a:	95 83       	std	Z+5, r25	; 0x05
    140c:	84 83       	std	Z+4, r24	; 0x04
    140e:	70 e0       	ldi	r23, 0x00	; 0
    1410:	68 50       	subi	r22, 0x08	; 8
    1412:	70 40       	sbci	r23, 0x00	; 0
    1414:	81 e0       	ldi	r24, 0x01	; 1
    1416:	90 e0       	ldi	r25, 0x00	; 0
    1418:	02 c0       	rjmp	.+4      	; 0x141e <_ZN16OrangutanDigital14getIORegistersEP8IOStructh+0x5a>
    141a:	88 0f       	add	r24, r24
    141c:	99 1f       	adc	r25, r25
    141e:	6a 95       	dec	r22
    1420:	e2 f7       	brpl	.-8      	; 0x141a <_ZN16OrangutanDigital14getIORegistersEP8IOStructh+0x56>
    1422:	86 83       	std	Z+6, r24	; 0x06
    1424:	08 95       	ret
    1426:	65 31       	cpi	r22, 0x15	; 21
    1428:	b8 f4       	brcc	.+46     	; 0x1458 <_ZN16OrangutanDigital14getIORegistersEP8IOStructh+0x94>
    142a:	86 e2       	ldi	r24, 0x26	; 38
    142c:	90 e0       	ldi	r25, 0x00	; 0
    142e:	91 83       	std	Z+1, r25	; 0x01
    1430:	80 83       	st	Z, r24
    1432:	88 e2       	ldi	r24, 0x28	; 40
    1434:	90 e0       	ldi	r25, 0x00	; 0
    1436:	93 83       	std	Z+3, r25	; 0x03
    1438:	82 83       	std	Z+2, r24	; 0x02
    143a:	87 e2       	ldi	r24, 0x27	; 39
    143c:	90 e0       	ldi	r25, 0x00	; 0
    143e:	95 83       	std	Z+5, r25	; 0x05
    1440:	84 83       	std	Z+4, r24	; 0x04
    1442:	70 e0       	ldi	r23, 0x00	; 0
    1444:	6e 50       	subi	r22, 0x0E	; 14
    1446:	70 40       	sbci	r23, 0x00	; 0
    1448:	81 e0       	ldi	r24, 0x01	; 1
    144a:	90 e0       	ldi	r25, 0x00	; 0
    144c:	02 c0       	rjmp	.+4      	; 0x1452 <_ZN16OrangutanDigital14getIORegistersEP8IOStructh+0x8e>
    144e:	88 0f       	add	r24, r24
    1450:	99 1f       	adc	r25, r25
    1452:	6a 95       	dec	r22
    1454:	e2 f7       	brpl	.-8      	; 0x144e <_ZN16OrangutanDigital14getIORegistersEP8IOStructh+0x8a>
    1456:	86 83       	std	Z+6, r24	; 0x06
    1458:	08 95       	ret

0000145a <_ZN16OrangutanDigital16setDataDirectionEP8IOStructh>:
    145a:	fc 01       	movw	r30, r24
    145c:	a4 81       	ldd	r26, Z+4	; 0x04
    145e:	b5 81       	ldd	r27, Z+5	; 0x05
    1460:	86 81       	ldd	r24, Z+6	; 0x06
    1462:	66 23       	and	r22, r22
    1464:	21 f0       	breq	.+8      	; 0x146e <_ZN16OrangutanDigital16setDataDirectionEP8IOStructh+0x14>
    1466:	9c 91       	ld	r25, X
    1468:	98 2b       	or	r25, r24
    146a:	9c 93       	st	X, r25
    146c:	08 95       	ret
    146e:	9c 91       	ld	r25, X
    1470:	80 95       	com	r24
    1472:	89 23       	and	r24, r25
    1474:	8c 93       	st	X, r24
    1476:	08 95       	ret

00001478 <_ZN16OrangutanDigital14setOutputValueEP8IOStructh>:
    1478:	fc 01       	movw	r30, r24
    147a:	6f 3f       	cpi	r22, 0xFF	; 255
    147c:	31 f4       	brne	.+12     	; 0x148a <_ZN16OrangutanDigital14setOutputValueEP8IOStructh+0x12>
    147e:	a2 81       	ldd	r26, Z+2	; 0x02
    1480:	b3 81       	ldd	r27, Z+3	; 0x03
    1482:	8c 91       	ld	r24, X
    1484:	96 81       	ldd	r25, Z+6	; 0x06
    1486:	89 27       	eor	r24, r25
    1488:	0c c0       	rjmp	.+24     	; 0x14a2 <_ZN16OrangutanDigital14setOutputValueEP8IOStructh+0x2a>
    148a:	a2 81       	ldd	r26, Z+2	; 0x02
    148c:	b3 81       	ldd	r27, Z+3	; 0x03
    148e:	86 81       	ldd	r24, Z+6	; 0x06
    1490:	66 23       	and	r22, r22
    1492:	21 f0       	breq	.+8      	; 0x149c <_ZN16OrangutanDigital14setOutputValueEP8IOStructh+0x24>
    1494:	9c 91       	ld	r25, X
    1496:	98 2b       	or	r25, r24
    1498:	9c 93       	st	X, r25
    149a:	08 95       	ret
    149c:	9c 91       	ld	r25, X
    149e:	80 95       	com	r24
    14a0:	89 23       	and	r24, r25
    14a2:	8c 93       	st	X, r24
    14a4:	08 95       	ret

000014a6 <_ZN16OrangutanDigital9setOutputEhh>:
    14a6:	a7 e0       	ldi	r26, 0x07	; 7
    14a8:	b0 e0       	ldi	r27, 0x00	; 0
    14aa:	e9 e5       	ldi	r30, 0x59	; 89
    14ac:	fa e0       	ldi	r31, 0x0A	; 10
    14ae:	0c 94 ca 11 	jmp	0x2394	; 0x2394 <__prologue_saves__+0x1a>
    14b2:	28 2f       	mov	r18, r24
    14b4:	f6 2e       	mov	r15, r22
    14b6:	8e 01       	movw	r16, r28
    14b8:	0f 5f       	subi	r16, 0xFF	; 255
    14ba:	1f 4f       	sbci	r17, 0xFF	; 255
    14bc:	c8 01       	movw	r24, r16
    14be:	62 2f       	mov	r22, r18
    14c0:	0e 94 e2 09 	call	0x13c4	; 0x13c4 <_ZN16OrangutanDigital14getIORegistersEP8IOStructh>
    14c4:	c8 01       	movw	r24, r16
    14c6:	6f 2d       	mov	r22, r15
    14c8:	0e 94 3c 0a 	call	0x1478	; 0x1478 <_ZN16OrangutanDigital14setOutputValueEP8IOStructh>
    14cc:	c8 01       	movw	r24, r16
    14ce:	61 e0       	ldi	r22, 0x01	; 1
    14d0:	0e 94 2d 0a 	call	0x145a	; 0x145a <_ZN16OrangutanDigital16setDataDirectionEP8IOStructh>
    14d4:	27 96       	adiw	r28, 0x07	; 7
    14d6:	e5 e0       	ldi	r30, 0x05	; 5
    14d8:	0c 94 e6 11 	jmp	0x23cc	; 0x23cc <__epilogue_restores__+0x1a>

000014dc <_ZN15OrangutanMotors5init2Ev>:
    14dc:	e0 eb       	ldi	r30, 0xB0	; 176
    14de:	f0 e0       	ldi	r31, 0x00	; 0
    14e0:	83 ef       	ldi	r24, 0xF3	; 243
    14e2:	80 83       	st	Z, r24
    14e4:	80 81       	ld	r24, Z
    14e6:	84 bd       	out	0x24, r24	; 36
    14e8:	e1 eb       	ldi	r30, 0xB1	; 177
    14ea:	f0 e0       	ldi	r31, 0x00	; 0
    14ec:	82 e0       	ldi	r24, 0x02	; 2
    14ee:	80 83       	st	Z, r24
    14f0:	80 81       	ld	r24, Z
    14f2:	85 bd       	out	0x25, r24	; 37
    14f4:	e4 eb       	ldi	r30, 0xB4	; 180
    14f6:	f0 e0       	ldi	r31, 0x00	; 0
    14f8:	10 82       	st	Z, r1
    14fa:	80 81       	ld	r24, Z
    14fc:	e3 eb       	ldi	r30, 0xB3	; 179
    14fe:	f0 e0       	ldi	r31, 0x00	; 0
    1500:	80 83       	st	Z, r24
    1502:	80 81       	ld	r24, Z
    1504:	88 bd       	out	0x28, r24	; 40
    1506:	88 b5       	in	r24, 0x28	; 40
    1508:	87 bd       	out	0x27, r24	; 39
    150a:	86 e0       	ldi	r24, 0x06	; 6
    150c:	60 e0       	ldi	r22, 0x00	; 0
    150e:	0e 94 53 0a 	call	0x14a6	; 0x14a6 <_ZN16OrangutanDigital9setOutputEhh>
    1512:	85 e0       	ldi	r24, 0x05	; 5
    1514:	60 e0       	ldi	r22, 0x00	; 0
    1516:	0e 94 53 0a 	call	0x14a6	; 0x14a6 <_ZN16OrangutanDigital9setOutputEhh>
    151a:	8b e0       	ldi	r24, 0x0B	; 11
    151c:	60 e0       	ldi	r22, 0x00	; 0
    151e:	0e 94 53 0a 	call	0x14a6	; 0x14a6 <_ZN16OrangutanDigital9setOutputEhh>
    1522:	83 e0       	ldi	r24, 0x03	; 3
    1524:	60 e0       	ldi	r22, 0x00	; 0
    1526:	0e 94 53 0a 	call	0x14a6	; 0x14a6 <_ZN16OrangutanDigital9setOutputEhh>
    152a:	08 95       	ret

0000152c <_ZN15OrangutanMotors4initEv>:
    152c:	80 91 5c 01 	lds	r24, 0x015C
    1530:	88 23       	and	r24, r24
    1532:	29 f4       	brne	.+10     	; 0x153e <_ZN15OrangutanMotors4initEv+0x12>
    1534:	81 e0       	ldi	r24, 0x01	; 1
    1536:	80 93 5c 01 	sts	0x015C, r24
    153a:	0e 94 6e 0a 	call	0x14dc	; 0x14dc <_ZN15OrangutanMotors5init2Ev>
    153e:	08 95       	ret

00001540 <_ZN15OrangutanMotors10setM1SpeedEi>:
    1540:	cf 93       	push	r28
    1542:	df 93       	push	r29
    1544:	ec 01       	movw	r28, r24
    1546:	0e 94 96 0a 	call	0x152c	; 0x152c <_ZN15OrangutanMotors4initEv>
    154a:	d7 ff       	sbrs	r29, 7
    154c:	05 c0       	rjmp	.+10     	; 0x1558 <_ZN15OrangutanMotors10setM1SpeedEi+0x18>
    154e:	d0 95       	com	r29
    1550:	c1 95       	neg	r28
    1552:	df 4f       	sbci	r29, 0xFF	; 255
    1554:	81 e0       	ldi	r24, 0x01	; 1
    1556:	01 c0       	rjmp	.+2      	; 0x155a <_ZN15OrangutanMotors10setM1SpeedEi+0x1a>
    1558:	80 e0       	ldi	r24, 0x00	; 0
    155a:	cf 3f       	cpi	r28, 0xFF	; 255
    155c:	d1 05       	cpc	r29, r1
    155e:	19 f0       	breq	.+6      	; 0x1566 <_ZN15OrangutanMotors10setM1SpeedEi+0x26>
    1560:	14 f0       	brlt	.+4      	; 0x1566 <_ZN15OrangutanMotors10setM1SpeedEi+0x26>
    1562:	cf ef       	ldi	r28, 0xFF	; 255
    1564:	d0 e0       	ldi	r29, 0x00	; 0
    1566:	88 23       	and	r24, r24
    1568:	19 f0       	breq	.+6      	; 0x1570 <_ZN15OrangutanMotors10setM1SpeedEi+0x30>
    156a:	18 bc       	out	0x28, r1	; 40
    156c:	c7 bd       	out	0x27, r28	; 39
    156e:	02 c0       	rjmp	.+4      	; 0x1574 <_ZN15OrangutanMotors10setM1SpeedEi+0x34>
    1570:	c8 bd       	out	0x28, r28	; 40
    1572:	17 bc       	out	0x27, r1	; 39
    1574:	df 91       	pop	r29
    1576:	cf 91       	pop	r28
    1578:	08 95       	ret

0000157a <_ZN15OrangutanMotors10setM2SpeedEi>:
    157a:	cf 93       	push	r28
    157c:	df 93       	push	r29
    157e:	ec 01       	movw	r28, r24
    1580:	0e 94 96 0a 	call	0x152c	; 0x152c <_ZN15OrangutanMotors4initEv>
    1584:	d7 ff       	sbrs	r29, 7
    1586:	05 c0       	rjmp	.+10     	; 0x1592 <_ZN15OrangutanMotors10setM2SpeedEi+0x18>
    1588:	d0 95       	com	r29
    158a:	c1 95       	neg	r28
    158c:	df 4f       	sbci	r29, 0xFF	; 255
    158e:	81 e0       	ldi	r24, 0x01	; 1
    1590:	01 c0       	rjmp	.+2      	; 0x1594 <_ZN15OrangutanMotors10setM2SpeedEi+0x1a>
    1592:	80 e0       	ldi	r24, 0x00	; 0
    1594:	cf 3f       	cpi	r28, 0xFF	; 255
    1596:	d1 05       	cpc	r29, r1
    1598:	19 f0       	breq	.+6      	; 0x15a0 <_ZN15OrangutanMotors10setM2SpeedEi+0x26>
    159a:	14 f0       	brlt	.+4      	; 0x15a0 <_ZN15OrangutanMotors10setM2SpeedEi+0x26>
    159c:	cf ef       	ldi	r28, 0xFF	; 255
    159e:	d0 e0       	ldi	r29, 0x00	; 0
    15a0:	88 23       	and	r24, r24
    15a2:	29 f0       	breq	.+10     	; 0x15ae <_ZN15OrangutanMotors10setM2SpeedEi+0x34>
    15a4:	10 92 b4 00 	sts	0x00B4, r1
    15a8:	c0 93 b3 00 	sts	0x00B3, r28
    15ac:	04 c0       	rjmp	.+8      	; 0x15b6 <_ZN15OrangutanMotors10setM2SpeedEi+0x3c>
    15ae:	c0 93 b4 00 	sts	0x00B4, r28
    15b2:	10 92 b3 00 	sts	0x00B3, r1
    15b6:	df 91       	pop	r29
    15b8:	cf 91       	pop	r28
    15ba:	08 95       	ret

000015bc <_ZN15OrangutanMotors9setSpeedsEii>:
    15bc:	cf 93       	push	r28
    15be:	df 93       	push	r29
    15c0:	eb 01       	movw	r28, r22
    15c2:	0e 94 a0 0a 	call	0x1540	; 0x1540 <_ZN15OrangutanMotors10setM1SpeedEi>
    15c6:	ce 01       	movw	r24, r28
    15c8:	0e 94 bd 0a 	call	0x157a	; 0x157a <_ZN15OrangutanMotors10setM2SpeedEi>
    15cc:	df 91       	pop	r29
    15ce:	cf 91       	pop	r28
    15d0:	08 95       	ret

000015d2 <set_motors>:
    15d2:	0e 94 de 0a 	call	0x15bc	; 0x15bc <_ZN15OrangutanMotors9setSpeedsEii>
    15d6:	08 95       	ret

000015d8 <_ZN20OrangutanPushbuttons5init2Ev>:
    15d8:	84 b1       	in	r24, 0x04	; 4
    15da:	8d 7c       	andi	r24, 0xCD	; 205
    15dc:	84 b9       	out	0x04, r24	; 4
    15de:	85 b1       	in	r24, 0x05	; 5
    15e0:	82 63       	ori	r24, 0x32	; 50
    15e2:	85 b9       	out	0x05, r24	; 5
    15e4:	85 e0       	ldi	r24, 0x05	; 5
    15e6:	90 e0       	ldi	r25, 0x00	; 0
    15e8:	6f 93       	push	r22
    15ea:	64 e0       	ldi	r22, 0x04	; 4
    15ec:	6a 95       	dec	r22
    15ee:	f1 f7       	brne	.-4      	; 0x15ec <_ZN20OrangutanPushbuttons5init2Ev+0x14>
    15f0:	6f 91       	pop	r22
    15f2:	01 97       	sbiw	r24, 0x01	; 1
    15f4:	c9 f7       	brne	.-14     	; 0x15e8 <_ZN20OrangutanPushbuttons5init2Ev+0x10>
    15f6:	08 95       	ret

000015f8 <_ZN20OrangutanPushbuttons4initEv>:
    15f8:	80 91 5d 01 	lds	r24, 0x015D
    15fc:	88 23       	and	r24, r24
    15fe:	29 f4       	brne	.+10     	; 0x160a <_ZN20OrangutanPushbuttons4initEv+0x12>
    1600:	81 e0       	ldi	r24, 0x01	; 1
    1602:	80 93 5d 01 	sts	0x015D, r24
    1606:	0e 94 ec 0a 	call	0x15d8	; 0x15d8 <_ZN20OrangutanPushbuttons5init2Ev>
    160a:	08 95       	ret

0000160c <_ZN20OrangutanPushbuttons14waitForReleaseEh>:
    160c:	1f 93       	push	r17
    160e:	18 2f       	mov	r17, r24
    1610:	0e 94 fc 0a 	call	0x15f8	; 0x15f8 <_ZN20OrangutanPushbuttons4initEv>
    1614:	83 b1       	in	r24, 0x03	; 3
    1616:	81 23       	and	r24, r17
    1618:	e9 f3       	breq	.-6      	; 0x1614 <_ZN20OrangutanPushbuttons14waitForReleaseEh+0x8>
    161a:	8a e0       	ldi	r24, 0x0A	; 10
    161c:	90 e0       	ldi	r25, 0x00	; 0
    161e:	0e 94 7f 0b 	call	0x16fe	; 0x16fe <delay_ms>
    1622:	83 b1       	in	r24, 0x03	; 3
    1624:	81 23       	and	r24, r17
    1626:	b1 f3       	breq	.-20     	; 0x1614 <_ZN20OrangutanPushbuttons14waitForReleaseEh+0x8>
    1628:	83 b1       	in	r24, 0x03	; 3
    162a:	81 23       	and	r24, r17
    162c:	1f 91       	pop	r17
    162e:	08 95       	ret

00001630 <wait_for_button_release>:
    1630:	0e 94 06 0b 	call	0x160c	; 0x160c <_ZN20OrangutanPushbuttons14waitForReleaseEh>
    1634:	08 95       	ret

00001636 <_ZN20OrangutanPushbuttons9isPressedEh>:
    1636:	a1 e0       	ldi	r26, 0x01	; 1
    1638:	b0 e0       	ldi	r27, 0x00	; 0
    163a:	e1 e2       	ldi	r30, 0x21	; 33
    163c:	fb e0       	ldi	r31, 0x0B	; 11
    163e:	0c 94 cd 11 	jmp	0x239a	; 0x239a <__prologue_saves__+0x20>
    1642:	89 83       	std	Y+1, r24	; 0x01
    1644:	0e 94 fc 0a 	call	0x15f8	; 0x15f8 <_ZN20OrangutanPushbuttons4initEv>
    1648:	93 b1       	in	r25, 0x03	; 3
    164a:	90 95       	com	r25
    164c:	89 81       	ldd	r24, Y+1	; 0x01
    164e:	89 23       	and	r24, r25
    1650:	21 96       	adiw	r28, 0x01	; 1
    1652:	e2 e0       	ldi	r30, 0x02	; 2
    1654:	0c 94 e9 11 	jmp	0x23d2	; 0x23d2 <__epilogue_restores__+0x20>

00001658 <button_is_pressed>:
    1658:	0e 94 1b 0b 	call	0x1636	; 0x1636 <_ZN20OrangutanPushbuttons9isPressedEh>
    165c:	08 95       	ret

0000165e <_ZN13OrangutanTime17delayMicrosecondsEj>:
    165e:	6f 93       	push	r22
    1660:	64 e0       	ldi	r22, 0x04	; 4
    1662:	6a 95       	dec	r22
    1664:	f1 f7       	brne	.-4      	; 0x1662 <_ZN13OrangutanTime17delayMicrosecondsEj+0x4>
    1666:	6f 91       	pop	r22
    1668:	01 97       	sbiw	r24, 0x01	; 1
    166a:	c9 f7       	brne	.-14     	; 0x165e <_ZN13OrangutanTime17delayMicrosecondsEj>
    166c:	08 95       	ret

0000166e <__vector_9>:
    166e:	2f 92       	push	r2
    1670:	8f 93       	push	r24
    1672:	9f 93       	push	r25
    1674:	2f b6       	in	r2, 0x3f	; 63
    1676:	80 91 6b 01 	lds	r24, 0x016B
    167a:	90 91 6c 01 	lds	r25, 0x016C
    167e:	01 96       	adiw	r24, 0x01	; 1
    1680:	80 93 6b 01 	sts	0x016B, r24
    1684:	90 93 6c 01 	sts	0x016C, r25
    1688:	90 e0       	ldi	r25, 0x00	; 0
    168a:	80 91 6d 01 	lds	r24, 0x016D
    168e:	89 1f       	adc	r24, r25
    1690:	80 93 6d 01 	sts	0x016D, r24
    1694:	90 91 73 01 	lds	r25, 0x0173
    1698:	9c 5f       	subi	r25, 0xFC	; 252
    169a:	90 93 73 01 	sts	0x0173, r25
    169e:	80 91 72 01 	lds	r24, 0x0172
    16a2:	80 51       	subi	r24, 0x10	; 16
    16a4:	97 42       	sbci	r25, 0x27	; 39
    16a6:	c0 f0       	brcs	.+48     	; 0x16d8 <end>
    16a8:	90 93 73 01 	sts	0x0173, r25
    16ac:	80 93 72 01 	sts	0x0172, r24
    16b0:	80 91 6e 01 	lds	r24, 0x016E
    16b4:	90 91 6f 01 	lds	r25, 0x016F
    16b8:	01 96       	adiw	r24, 0x01	; 1
    16ba:	80 93 6e 01 	sts	0x016E, r24
    16be:	90 93 6f 01 	sts	0x016F, r25
    16c2:	90 e0       	ldi	r25, 0x00	; 0
    16c4:	80 91 70 01 	lds	r24, 0x0170
    16c8:	89 1f       	adc	r24, r25
    16ca:	80 93 70 01 	sts	0x0170, r24
    16ce:	80 91 71 01 	lds	r24, 0x0171
    16d2:	89 1f       	adc	r24, r25
    16d4:	80 93 71 01 	sts	0x0171, r24

000016d8 <end>:
    16d8:	2f be       	out	0x3f, r2	; 63
    16da:	9f 91       	pop	r25
    16dc:	8f 91       	pop	r24
    16de:	2f 90       	pop	r2
    16e0:	18 95       	reti

000016e2 <_ZN13OrangutanTime17delayMillisecondsEj>:
    16e2:	cf 93       	push	r28
    16e4:	df 93       	push	r29
    16e6:	ec 01       	movw	r28, r24
    16e8:	05 c0       	rjmp	.+10     	; 0x16f4 <_ZN13OrangutanTime17delayMillisecondsEj+0x12>
    16ea:	88 ee       	ldi	r24, 0xE8	; 232
    16ec:	93 e0       	ldi	r25, 0x03	; 3
    16ee:	0e 94 2f 0b 	call	0x165e	; 0x165e <_ZN13OrangutanTime17delayMicrosecondsEj>
    16f2:	21 97       	sbiw	r28, 0x01	; 1
    16f4:	20 97       	sbiw	r28, 0x00	; 0
    16f6:	c9 f7       	brne	.-14     	; 0x16ea <_ZN13OrangutanTime17delayMillisecondsEj+0x8>
    16f8:	df 91       	pop	r29
    16fa:	cf 91       	pop	r28
    16fc:	08 95       	ret

000016fe <delay_ms>:
    16fe:	0e 94 71 0b 	call	0x16e2	; 0x16e2 <_ZN13OrangutanTime17delayMillisecondsEj>
    1702:	08 95       	ret

00001704 <_ZN13OrangutanTime5init2Ev>:
    1704:	e0 e7       	ldi	r30, 0x70	; 112
    1706:	f0 e0       	ldi	r31, 0x00	; 0
    1708:	80 81       	ld	r24, Z
    170a:	8e 7f       	andi	r24, 0xFE	; 254
    170c:	80 83       	st	Z, r24
    170e:	a0 eb       	ldi	r26, 0xB0	; 176
    1710:	b0 e0       	ldi	r27, 0x00	; 0
    1712:	8c 91       	ld	r24, X
    1714:	83 60       	ori	r24, 0x03	; 3
    1716:	8c 93       	st	X, r24
    1718:	a1 eb       	ldi	r26, 0xB1	; 177
    171a:	b0 e0       	ldi	r27, 0x00	; 0
    171c:	8c 91       	ld	r24, X
    171e:	80 7f       	andi	r24, 0xF0	; 240
    1720:	8c 93       	st	X, r24
    1722:	8c 91       	ld	r24, X
    1724:	82 60       	ori	r24, 0x02	; 2
    1726:	8c 93       	st	X, r24
    1728:	b8 9a       	sbi	0x17, 0	; 23
    172a:	80 81       	ld	r24, Z
    172c:	81 60       	ori	r24, 0x01	; 1
    172e:	80 83       	st	Z, r24
    1730:	78 94       	sei
    1732:	08 95       	ret

00001734 <_ZN13OrangutanTime4initEv>:
    1734:	80 91 74 01 	lds	r24, 0x0174
    1738:	88 23       	and	r24, r24
    173a:	29 f4       	brne	.+10     	; 0x1746 <_ZN13OrangutanTime4initEv+0x12>
    173c:	81 e0       	ldi	r24, 0x01	; 1
    173e:	80 93 74 01 	sts	0x0174, r24
    1742:	0e 94 82 0b 	call	0x1704	; 0x1704 <_ZN13OrangutanTime5init2Ev>
    1746:	08 95       	ret

00001748 <_ZN13OrangutanTime5resetEv>:
    1748:	0e 94 9a 0b 	call	0x1734	; 0x1734 <_ZN13OrangutanTime4initEv>
    174c:	e0 e7       	ldi	r30, 0x70	; 112
    174e:	f0 e0       	ldi	r31, 0x00	; 0
    1750:	80 81       	ld	r24, Z
    1752:	8e 7f       	andi	r24, 0xFE	; 254
    1754:	80 83       	st	Z, r24
    1756:	10 92 6e 01 	sts	0x016E, r1
    175a:	10 92 6f 01 	sts	0x016F, r1
    175e:	10 92 70 01 	sts	0x0170, r1
    1762:	10 92 71 01 	sts	0x0171, r1
    1766:	10 92 73 01 	sts	0x0173, r1
    176a:	10 92 72 01 	sts	0x0172, r1
    176e:	80 81       	ld	r24, Z
    1770:	81 60       	ori	r24, 0x01	; 1
    1772:	80 83       	st	Z, r24
    1774:	08 95       	ret

00001776 <calibrate_line_sensors>:
    1776:	68 2f       	mov	r22, r24
    1778:	85 e7       	ldi	r24, 0x75	; 117
    177a:	91 e0       	ldi	r25, 0x01	; 1
    177c:	0e 94 eb 10 	call	0x21d6	; 0x21d6 <_ZN16PololuQTRSensors9calibrateEh>
    1780:	08 95       	ret

00001782 <read_line>:
    1782:	9c 01       	movw	r18, r24
    1784:	46 2f       	mov	r20, r22
    1786:	85 e7       	ldi	r24, 0x75	; 117
    1788:	91 e0       	ldi	r25, 0x01	; 1
    178a:	b9 01       	movw	r22, r18
    178c:	20 e0       	ldi	r18, 0x00	; 0
    178e:	0e 94 49 0f 	call	0x1e92	; 0x1e92 <_ZN16PololuQTRSensors8readLineEPjhh>
    1792:	08 95       	ret

00001794 <_ZN9Pololu3pi4initEjh>:
    1794:	0f 93       	push	r16
    1796:	df 93       	push	r29
    1798:	cf 93       	push	r28
    179a:	00 d0       	rcall	.+0      	; 0x179c <_ZN9Pololu3pi4initEjh+0x8>
    179c:	00 d0       	rcall	.+0      	; 0x179e <_ZN9Pololu3pi4initEjh+0xa>
    179e:	0f 92       	push	r0
    17a0:	cd b7       	in	r28, 0x3d	; 61
    17a2:	de b7       	in	r29, 0x3e	; 62
    17a4:	9c 01       	movw	r18, r24
    17a6:	96 2f       	mov	r25, r22
    17a8:	de 01       	movw	r26, r28
    17aa:	11 96       	adiw	r26, 0x01	; 1
    17ac:	e6 e2       	ldi	r30, 0x26	; 38
    17ae:	f1 e0       	ldi	r31, 0x01	; 1
    17b0:	85 e0       	ldi	r24, 0x05	; 5
    17b2:	01 90       	ld	r0, Z+
    17b4:	0d 92       	st	X+, r0
    17b6:	81 50       	subi	r24, 0x01	; 1
    17b8:	e1 f7       	brne	.-8      	; 0x17b2 <_ZN9Pololu3pi4initEjh+0x1e>
    17ba:	be 01       	movw	r22, r28
    17bc:	6f 5f       	subi	r22, 0xFF	; 255
    17be:	7f 4f       	sbci	r23, 0xFF	; 255
    17c0:	99 23       	and	r25, r25
    17c2:	29 f0       	breq	.+10     	; 0x17ce <_ZN9Pololu3pi4initEjh+0x3a>
    17c4:	85 e7       	ldi	r24, 0x75	; 117
    17c6:	91 e0       	ldi	r25, 0x01	; 1
    17c8:	45 e0       	ldi	r20, 0x05	; 5
    17ca:	0f ef       	ldi	r16, 0xFF	; 255
    17cc:	04 c0       	rjmp	.+8      	; 0x17d6 <_ZN9Pololu3pi4initEjh+0x42>
    17ce:	85 e7       	ldi	r24, 0x75	; 117
    17d0:	91 e0       	ldi	r25, 0x01	; 1
    17d2:	45 e0       	ldi	r20, 0x05	; 5
    17d4:	03 e1       	ldi	r16, 0x13	; 19
    17d6:	0e 94 64 0c 	call	0x18c8	; 0x18c8 <_ZN18PololuQTRSensorsRC4initEPhhjh>
    17da:	85 e7       	ldi	r24, 0x75	; 117
    17dc:	91 e0       	ldi	r25, 0x01	; 1
    17de:	0e 94 3b 0c 	call	0x1876	; 0x1876 <_ZN16PololuQTRSensors11emittersOffEv>
    17e2:	0e 94 a4 0b 	call	0x1748	; 0x1748 <_ZN13OrangutanTime5resetEv>
    17e6:	0f 90       	pop	r0
    17e8:	0f 90       	pop	r0
    17ea:	0f 90       	pop	r0
    17ec:	0f 90       	pop	r0
    17ee:	0f 90       	pop	r0
    17f0:	cf 91       	pop	r28
    17f2:	df 91       	pop	r29
    17f4:	0f 91       	pop	r16
    17f6:	08 95       	ret

000017f8 <pololu_3pi_init>:
    17f8:	60 e0       	ldi	r22, 0x00	; 0
    17fa:	0e 94 ca 0b 	call	0x1794	; 0x1794 <_ZN9Pololu3pi4initEjh>
    17fe:	08 95       	ret

00001800 <_GLOBAL__I_pololu_3pi_init>:
    1800:	08 95       	ret

00001802 <_GLOBAL__D_pololu_3pi_init>:
    1802:	85 e7       	ldi	r24, 0x75	; 117
    1804:	91 e0       	ldi	r25, 0x01	; 1
    1806:	0e 94 0f 11 	call	0x221e	; 0x221e <_ZN16PololuQTRSensorsD1Ev>
    180a:	08 95       	ret

0000180c <delayMicroseconds>:
    180c:	6f 93       	push	r22
    180e:	64 e0       	ldi	r22, 0x04	; 4
    1810:	6a 95       	dec	r22
    1812:	f1 f7       	brne	.-4      	; 0x1810 <delayMicroseconds+0x4>
    1814:	6f 91       	pop	r22
    1816:	01 97       	sbiw	r24, 0x01	; 1
    1818:	c9 f7       	brne	.-14     	; 0x180c <delayMicroseconds>
    181a:	08 95       	ret

0000181c <_ZN16PololuQTRSensors4initEhhh>:
    181c:	a7 e0       	ldi	r26, 0x07	; 7
    181e:	b0 e0       	ldi	r27, 0x00	; 0
    1820:	e4 e1       	ldi	r30, 0x14	; 20
    1822:	fc e0       	ldi	r31, 0x0C	; 12
    1824:	0c 94 cb 11 	jmp	0x2396	; 0x2396 <__prologue_saves__+0x1c>
    1828:	8c 01       	movw	r16, r24
    182a:	fc 01       	movw	r30, r24
    182c:	11 82       	std	Z+1, r1	; 0x01
    182e:	10 82       	st	Z, r1
    1830:	13 82       	std	Z+3, r1	; 0x03
    1832:	12 82       	std	Z+2, r1	; 0x02
    1834:	15 82       	std	Z+5, r1	; 0x05
    1836:	14 82       	std	Z+4, r1	; 0x04
    1838:	17 82       	std	Z+7, r1	; 0x07
    183a:	16 82       	std	Z+6, r1	; 0x06
    183c:	61 31       	cpi	r22, 0x11	; 17
    183e:	18 f0       	brcs	.+6      	; 0x1846 <_ZN16PololuQTRSensors4initEhhh+0x2a>
    1840:	80 e1       	ldi	r24, 0x10	; 16
    1842:	80 87       	std	Z+8, r24	; 0x08
    1844:	02 c0       	rjmp	.+4      	; 0x184a <_ZN16PololuQTRSensors4initEhhh+0x2e>
    1846:	fc 01       	movw	r30, r24
    1848:	60 87       	std	Z+8, r22	; 0x08
    184a:	f8 01       	movw	r30, r16
    184c:	20 8b       	std	Z+16, r18	; 0x10
    184e:	ce 01       	movw	r24, r28
    1850:	01 96       	adiw	r24, 0x01	; 1
    1852:	64 2f       	mov	r22, r20
    1854:	0e 94 e2 09 	call	0x13c4	; 0x13c4 <_ZN16OrangutanDigital14getIORegistersEP8IOStructh>
    1858:	8f 81       	ldd	r24, Y+7	; 0x07
    185a:	f8 01       	movw	r30, r16
    185c:	81 87       	std	Z+9, r24	; 0x09
    185e:	8b 81       	ldd	r24, Y+3	; 0x03
    1860:	9c 81       	ldd	r25, Y+4	; 0x04
    1862:	93 87       	std	Z+11, r25	; 0x0b
    1864:	82 87       	std	Z+10, r24	; 0x0a
    1866:	8d 81       	ldd	r24, Y+5	; 0x05
    1868:	9e 81       	ldd	r25, Y+6	; 0x06
    186a:	95 87       	std	Z+13, r25	; 0x0d
    186c:	84 87       	std	Z+12, r24	; 0x0c
    186e:	27 96       	adiw	r28, 0x07	; 7
    1870:	e4 e0       	ldi	r30, 0x04	; 4
    1872:	0c 94 e7 11 	jmp	0x23ce	; 0x23ce <__epilogue_restores__+0x1c>

00001876 <_ZN16PololuQTRSensors11emittersOffEv>:
    1876:	fc 01       	movw	r30, r24
    1878:	a4 85       	ldd	r26, Z+12	; 0x0c
    187a:	b5 85       	ldd	r27, Z+13	; 0x0d
    187c:	10 97       	sbiw	r26, 0x00	; 0
    187e:	79 f0       	breq	.+30     	; 0x189e <_ZN16PololuQTRSensors11emittersOffEv+0x28>
    1880:	8c 91       	ld	r24, X
    1882:	91 85       	ldd	r25, Z+9	; 0x09
    1884:	89 2b       	or	r24, r25
    1886:	8c 93       	st	X, r24
    1888:	a2 85       	ldd	r26, Z+10	; 0x0a
    188a:	b3 85       	ldd	r27, Z+11	; 0x0b
    188c:	9c 91       	ld	r25, X
    188e:	81 85       	ldd	r24, Z+9	; 0x09
    1890:	80 95       	com	r24
    1892:	89 23       	and	r24, r25
    1894:	8c 93       	st	X, r24
    1896:	88 ec       	ldi	r24, 0xC8	; 200
    1898:	90 e0       	ldi	r25, 0x00	; 0
    189a:	0e 94 06 0c 	call	0x180c	; 0x180c <delayMicroseconds>
    189e:	08 95       	ret

000018a0 <_ZN16PololuQTRSensors10emittersOnEv>:
    18a0:	fc 01       	movw	r30, r24
    18a2:	a4 85       	ldd	r26, Z+12	; 0x0c
    18a4:	b5 85       	ldd	r27, Z+13	; 0x0d
    18a6:	10 97       	sbiw	r26, 0x00	; 0
    18a8:	71 f0       	breq	.+28     	; 0x18c6 <_ZN16PololuQTRSensors10emittersOnEv+0x26>
    18aa:	8c 91       	ld	r24, X
    18ac:	91 85       	ldd	r25, Z+9	; 0x09
    18ae:	89 2b       	or	r24, r25
    18b0:	8c 93       	st	X, r24
    18b2:	a2 85       	ldd	r26, Z+10	; 0x0a
    18b4:	b3 85       	ldd	r27, Z+11	; 0x0b
    18b6:	8c 91       	ld	r24, X
    18b8:	91 85       	ldd	r25, Z+9	; 0x09
    18ba:	89 2b       	or	r24, r25
    18bc:	8c 93       	st	X, r24
    18be:	88 ec       	ldi	r24, 0xC8	; 200
    18c0:	90 e0       	ldi	r25, 0x00	; 0
    18c2:	0e 94 06 0c 	call	0x180c	; 0x180c <delayMicroseconds>
    18c6:	08 95       	ret

000018c8 <_ZN18PololuQTRSensorsRC4initEPhhjh>:
    18c8:	a7 e0       	ldi	r26, 0x07	; 7
    18ca:	b0 e0       	ldi	r27, 0x00	; 0
    18cc:	ea e6       	ldi	r30, 0x6A	; 106
    18ce:	fc e0       	ldi	r31, 0x0C	; 12
    18d0:	0c 94 bd 11 	jmp	0x237a	; 0x237a <__prologue_saves__>
    18d4:	7c 01       	movw	r14, r24
    18d6:	1b 01       	movw	r2, r22
    18d8:	64 2f       	mov	r22, r20
    18da:	39 01       	movw	r6, r18
    18dc:	40 2f       	mov	r20, r16
    18de:	20 e0       	ldi	r18, 0x00	; 0
    18e0:	0e 94 0e 0c 	call	0x181c	; 0x181c <_ZN16PololuQTRSensors4initEhhh>
    18e4:	97 01       	movw	r18, r14
    18e6:	2f 5b       	subi	r18, 0xBF	; 191
    18e8:	3f 4f       	sbci	r19, 0xFF	; 255
    18ea:	f9 01       	movw	r30, r18
    18ec:	10 82       	st	Z, r1
    18ee:	d7 01       	movw	r26, r14
    18f0:	ae 5b       	subi	r26, 0xBE	; 190
    18f2:	bf 4f       	sbci	r27, 0xFF	; 255
    18f4:	1c 92       	st	X, r1
    18f6:	c7 01       	movw	r24, r14
    18f8:	8d 5b       	subi	r24, 0xBD	; 189
    18fa:	9f 4f       	sbci	r25, 0xFF	; 255
    18fc:	fc 01       	movw	r30, r24
    18fe:	10 82       	st	Z, r1
    1900:	f7 01       	movw	r30, r14
    1902:	77 86       	std	Z+15, r7	; 0x0f
    1904:	66 86       	std	Z+14, r6	; 0x0e
    1906:	66 24       	eor	r6, r6
    1908:	2e 01       	movw	r4, r28
    190a:	08 94       	sec
    190c:	41 1c       	adc	r4, r1
    190e:	51 1c       	adc	r5, r1
    1910:	6c 01       	movw	r12, r24
    1912:	5d 01       	movw	r10, r26
    1914:	49 01       	movw	r8, r18
    1916:	29 c0       	rjmp	.+82     	; 0x196a <_ZN18PololuQTRSensorsRC4initEPhhjh+0xa2>
    1918:	06 2d       	mov	r16, r6
    191a:	10 e0       	ldi	r17, 0x00	; 0
    191c:	f1 01       	movw	r30, r2
    191e:	e0 0f       	add	r30, r16
    1920:	f1 1f       	adc	r31, r17
    1922:	c2 01       	movw	r24, r4
    1924:	60 81       	ld	r22, Z
    1926:	0e 94 e2 09 	call	0x13c4	; 0x13c4 <_ZN16OrangutanDigital14getIORegistersEP8IOStructh>
    192a:	2f 81       	ldd	r18, Y+7	; 0x07
    192c:	f7 01       	movw	r30, r14
    192e:	e0 0f       	add	r30, r16
    1930:	f1 1f       	adc	r31, r17
    1932:	21 8b       	std	Z+17, r18	; 0x11
    1934:	89 81       	ldd	r24, Y+1	; 0x01
    1936:	9a 81       	ldd	r25, Y+2	; 0x02
    1938:	f8 01       	movw	r30, r16
    193a:	ee 0f       	add	r30, r30
    193c:	ff 1f       	adc	r31, r31
    193e:	ee 0d       	add	r30, r14
    1940:	ff 1d       	adc	r31, r15
    1942:	92 a3       	std	Z+34, r25	; 0x22
    1944:	81 a3       	std	Z+33, r24	; 0x21
    1946:	83 32       	cpi	r24, 0x23	; 35
    1948:	91 05       	cpc	r25, r1
    194a:	11 f4       	brne	.+4      	; 0x1950 <_ZN18PololuQTRSensorsRC4initEPhhjh+0x88>
    194c:	f4 01       	movw	r30, r8
    194e:	09 c0       	rjmp	.+18     	; 0x1962 <_ZN18PololuQTRSensorsRC4initEPhhjh+0x9a>
    1950:	86 32       	cpi	r24, 0x26	; 38
    1952:	91 05       	cpc	r25, r1
    1954:	11 f4       	brne	.+4      	; 0x195a <_ZN18PololuQTRSensorsRC4initEPhhjh+0x92>
    1956:	f5 01       	movw	r30, r10
    1958:	04 c0       	rjmp	.+8      	; 0x1962 <_ZN18PololuQTRSensorsRC4initEPhhjh+0x9a>
    195a:	89 32       	cpi	r24, 0x29	; 41
    195c:	91 05       	cpc	r25, r1
    195e:	21 f4       	brne	.+8      	; 0x1968 <_ZN18PololuQTRSensorsRC4initEPhhjh+0xa0>
    1960:	f6 01       	movw	r30, r12
    1962:	80 81       	ld	r24, Z
    1964:	82 2b       	or	r24, r18
    1966:	80 83       	st	Z, r24
    1968:	63 94       	inc	r6
    196a:	f7 01       	movw	r30, r14
    196c:	80 85       	ldd	r24, Z+8	; 0x08
    196e:	68 16       	cp	r6, r24
    1970:	98 f2       	brcs	.-90     	; 0x1918 <_ZN18PololuQTRSensorsRC4initEPhhjh+0x50>
    1972:	27 96       	adiw	r28, 0x07	; 7
    1974:	e2 e1       	ldi	r30, 0x12	; 18
    1976:	0c 94 d9 11 	jmp	0x23b2	; 0x23b2 <__epilogue_restores__>

0000197a <_ZN18PololuQTRSensorsRC11readPrivateEPj>:
    197a:	a0 e0       	ldi	r26, 0x00	; 0
    197c:	b0 e0       	ldi	r27, 0x00	; 0
    197e:	e3 ec       	ldi	r30, 0xC3	; 195
    1980:	fc e0       	ldi	r31, 0x0C	; 12
    1982:	0c 94 c2 11 	jmp	0x2384	; 0x2384 <__prologue_saves__+0xa>
    1986:	ec 01       	movw	r28, r24
    1988:	5b 01       	movw	r10, r22
    198a:	fc 01       	movw	r30, r24
    198c:	ef 5b       	subi	r30, 0xBF	; 191
    198e:	ff 4f       	sbci	r31, 0xFF	; 255
    1990:	90 80       	ld	r9, Z
    1992:	fc 01       	movw	r30, r24
    1994:	ee 5b       	subi	r30, 0xBE	; 190
    1996:	ff 4f       	sbci	r31, 0xFF	; 255
    1998:	80 80       	ld	r8, Z
    199a:	fc 01       	movw	r30, r24
    199c:	ed 5b       	subi	r30, 0xBD	; 189
    199e:	ff 4f       	sbci	r31, 0xFF	; 255
    19a0:	70 80       	ld	r7, Z
    19a2:	80 e0       	ldi	r24, 0x00	; 0
    19a4:	09 c0       	rjmp	.+18     	; 0x19b8 <_ZN18PololuQTRSensorsRC11readPrivateEPj+0x3e>
    19a6:	e8 2f       	mov	r30, r24
    19a8:	f0 e0       	ldi	r31, 0x00	; 0
    19aa:	ee 0f       	add	r30, r30
    19ac:	ff 1f       	adc	r31, r31
    19ae:	ea 0d       	add	r30, r10
    19b0:	fb 1d       	adc	r31, r11
    19b2:	11 82       	std	Z+1, r1	; 0x01
    19b4:	10 82       	st	Z, r1
    19b6:	8f 5f       	subi	r24, 0xFF	; 255
    19b8:	98 85       	ldd	r25, Y+8	; 0x08
    19ba:	89 17       	cp	r24, r25
    19bc:	a0 f3       	brcs	.-24     	; 0x19a6 <_ZN18PololuQTRSensorsRC11readPrivateEPj+0x2c>
    19be:	84 b1       	in	r24, 0x04	; 4
    19c0:	21 e4       	ldi	r18, 0x41	; 65
    19c2:	e2 2e       	mov	r14, r18
    19c4:	f1 2c       	mov	r15, r1
    19c6:	ec 0e       	add	r14, r28
    19c8:	fd 1e       	adc	r15, r29
    19ca:	d7 01       	movw	r26, r14
    19cc:	9c 91       	ld	r25, X
    19ce:	89 2b       	or	r24, r25
    19d0:	84 b9       	out	0x04, r24	; 4
    19d2:	87 b1       	in	r24, 0x07	; 7
    19d4:	8e 01       	movw	r16, r28
    19d6:	0e 5b       	subi	r16, 0xBE	; 190
    19d8:	1f 4f       	sbci	r17, 0xFF	; 255
    19da:	f8 01       	movw	r30, r16
    19dc:	90 81       	ld	r25, Z
    19de:	89 2b       	or	r24, r25
    19e0:	87 b9       	out	0x07, r24	; 7
    19e2:	8a b1       	in	r24, 0x0a	; 10
    19e4:	93 e4       	ldi	r25, 0x43	; 67
    19e6:	c9 2e       	mov	r12, r25
    19e8:	d1 2c       	mov	r13, r1
    19ea:	cc 0e       	add	r12, r28
    19ec:	dd 1e       	adc	r13, r29
    19ee:	d6 01       	movw	r26, r12
    19f0:	9c 91       	ld	r25, X
    19f2:	89 2b       	or	r24, r25
    19f4:	8a b9       	out	0x0a, r24	; 10
    19f6:	85 b1       	in	r24, 0x05	; 5
    19f8:	f7 01       	movw	r30, r14
    19fa:	90 81       	ld	r25, Z
    19fc:	89 2b       	or	r24, r25
    19fe:	85 b9       	out	0x05, r24	; 5
    1a00:	88 b1       	in	r24, 0x08	; 8
    1a02:	d8 01       	movw	r26, r16
    1a04:	9c 91       	ld	r25, X
    1a06:	89 2b       	or	r24, r25
    1a08:	88 b9       	out	0x08, r24	; 8
    1a0a:	8b b1       	in	r24, 0x0b	; 11
    1a0c:	f6 01       	movw	r30, r12
    1a0e:	90 81       	ld	r25, Z
    1a10:	89 2b       	or	r24, r25
    1a12:	8b b9       	out	0x0b, r24	; 11
    1a14:	8a e0       	ldi	r24, 0x0A	; 10
    1a16:	90 e0       	ldi	r25, 0x00	; 0
    1a18:	0e 94 06 0c 	call	0x180c	; 0x180c <delayMicroseconds>
    1a1c:	94 b1       	in	r25, 0x04	; 4
    1a1e:	d7 01       	movw	r26, r14
    1a20:	8c 91       	ld	r24, X
    1a22:	80 95       	com	r24
    1a24:	89 23       	and	r24, r25
    1a26:	84 b9       	out	0x04, r24	; 4
    1a28:	97 b1       	in	r25, 0x07	; 7
    1a2a:	f8 01       	movw	r30, r16
    1a2c:	80 81       	ld	r24, Z
    1a2e:	80 95       	com	r24
    1a30:	89 23       	and	r24, r25
    1a32:	87 b9       	out	0x07, r24	; 7
    1a34:	9a b1       	in	r25, 0x0a	; 10
    1a36:	d6 01       	movw	r26, r12
    1a38:	8c 91       	ld	r24, X
    1a3a:	80 95       	com	r24
    1a3c:	89 23       	and	r24, r25
    1a3e:	8a b9       	out	0x0a, r24	; 10
    1a40:	95 b1       	in	r25, 0x05	; 5
    1a42:	f7 01       	movw	r30, r14
    1a44:	80 81       	ld	r24, Z
    1a46:	80 95       	com	r24
    1a48:	89 23       	and	r24, r25
    1a4a:	85 b9       	out	0x05, r24	; 5
    1a4c:	98 b1       	in	r25, 0x08	; 8
    1a4e:	d8 01       	movw	r26, r16
    1a50:	8c 91       	ld	r24, X
    1a52:	80 95       	com	r24
    1a54:	89 23       	and	r24, r25
    1a56:	88 b9       	out	0x08, r24	; 8
    1a58:	9b b1       	in	r25, 0x0b	; 11
    1a5a:	f6 01       	movw	r30, r12
    1a5c:	80 81       	ld	r24, Z
    1a5e:	80 95       	com	r24
    1a60:	89 23       	and	r24, r25
    1a62:	8b b9       	out	0x0b, r24	; 11
    1a64:	c0 90 b0 00 	lds	r12, 0x00B0
    1a68:	e0 90 b1 00 	lds	r14, 0x00B1
    1a6c:	80 91 b0 00 	lds	r24, 0x00B0
    1a70:	83 60       	ori	r24, 0x03	; 3
    1a72:	80 93 b0 00 	sts	0x00B0, r24
    1a76:	82 e0       	ldi	r24, 0x02	; 2
    1a78:	80 93 b1 00 	sts	0x00B1, r24
    1a7c:	00 91 b2 00 	lds	r16, 0x00B2
    1a80:	80 e0       	ldi	r24, 0x00	; 0
    1a82:	90 e0       	ldi	r25, 0x00	; 0
    1a84:	39 c0       	rjmp	.+114    	; 0x1af8 <_ZN18PololuQTRSensorsRC11readPrivateEPj+0x17e>
    1a86:	20 91 b2 00 	lds	r18, 0x00B2
    1a8a:	20 1b       	sub	r18, r16
    1a8c:	82 0f       	add	r24, r18
    1a8e:	91 1d       	adc	r25, r1
    1a90:	02 0f       	add	r16, r18
    1a92:	f3 b0       	in	r15, 0x03	; 3
    1a94:	f9 14       	cp	r15, r9
    1a96:	09 f0       	breq	.+2      	; 0x1a9a <_ZN18PololuQTRSensorsRC11readPrivateEPj+0x120>
    1a98:	4d c0       	rjmp	.+154    	; 0x1b34 <_ZN18PololuQTRSensorsRC11readPrivateEPj+0x1ba>
    1a9a:	96 b0       	in	r9, 0x06	; 6
    1a9c:	98 14       	cp	r9, r8
    1a9e:	09 f0       	breq	.+2      	; 0x1aa2 <_ZN18PololuQTRSensorsRC11readPrivateEPj+0x128>
    1aa0:	49 c0       	rjmp	.+146    	; 0x1b34 <_ZN18PololuQTRSensorsRC11readPrivateEPj+0x1ba>
    1aa2:	29 b1       	in	r18, 0x09	; 9
    1aa4:	27 15       	cp	r18, r7
    1aa6:	09 f0       	breq	.+2      	; 0x1aaa <_ZN18PololuQTRSensorsRC11readPrivateEPj+0x130>
    1aa8:	45 c0       	rjmp	.+138    	; 0x1b34 <_ZN18PololuQTRSensorsRC11readPrivateEPj+0x1ba>
    1aaa:	24 c0       	rjmp	.+72     	; 0x1af4 <_ZN18PololuQTRSensorsRC11readPrivateEPj+0x17a>
    1aac:	21 2f       	mov	r18, r17
    1aae:	30 e0       	ldi	r19, 0x00	; 0
    1ab0:	a9 01       	movw	r20, r18
    1ab2:	44 0f       	add	r20, r20
    1ab4:	55 1f       	adc	r21, r21
    1ab6:	f5 01       	movw	r30, r10
    1ab8:	e4 0f       	add	r30, r20
    1aba:	f5 1f       	adc	r31, r21
    1abc:	60 81       	ld	r22, Z
    1abe:	71 81       	ldd	r23, Z+1	; 0x01
    1ac0:	61 15       	cp	r22, r1
    1ac2:	71 05       	cpc	r23, r1
    1ac4:	99 f4       	brne	.+38     	; 0x1aec <_ZN18PololuQTRSensorsRC11readPrivateEPj+0x172>
    1ac6:	4c 0f       	add	r20, r28
    1ac8:	5d 1f       	adc	r21, r29
    1aca:	da 01       	movw	r26, r20
    1acc:	91 96       	adiw	r26, 0x21	; 33
    1ace:	4d 91       	ld	r20, X+
    1ad0:	5c 91       	ld	r21, X
    1ad2:	92 97       	sbiw	r26, 0x22	; 34
    1ad4:	da 01       	movw	r26, r20
    1ad6:	4c 91       	ld	r20, X
    1ad8:	2c 0f       	add	r18, r28
    1ada:	3d 1f       	adc	r19, r29
    1adc:	d9 01       	movw	r26, r18
    1ade:	51 96       	adiw	r26, 0x11	; 17
    1ae0:	2c 91       	ld	r18, X
    1ae2:	51 97       	sbiw	r26, 0x11	; 17
    1ae4:	42 23       	and	r20, r18
    1ae6:	11 f4       	brne	.+4      	; 0x1aec <_ZN18PololuQTRSensorsRC11readPrivateEPj+0x172>
    1ae8:	91 83       	std	Z+1, r25	; 0x01
    1aea:	80 83       	st	Z, r24
    1aec:	1f 5f       	subi	r17, 0xFF	; 255
    1aee:	28 85       	ldd	r18, Y+8	; 0x08
    1af0:	12 17       	cp	r17, r18
    1af2:	e0 f2       	brcs	.-72     	; 0x1aac <_ZN18PololuQTRSensorsRC11readPrivateEPj+0x132>
    1af4:	89 2c       	mov	r8, r9
    1af6:	9f 2c       	mov	r9, r15
    1af8:	2e 85       	ldd	r18, Y+14	; 0x0e
    1afa:	3f 85       	ldd	r19, Y+15	; 0x0f
    1afc:	82 17       	cp	r24, r18
    1afe:	93 07       	cpc	r25, r19
    1b00:	10 f2       	brcs	.-124    	; 0x1a86 <_ZN18PololuQTRSensorsRC11readPrivateEPj+0x10c>
    1b02:	c0 92 b0 00 	sts	0x00B0, r12
    1b06:	e0 92 b1 00 	sts	0x00B1, r14
    1b0a:	20 e0       	ldi	r18, 0x00	; 0
    1b0c:	0f c0       	rjmp	.+30     	; 0x1b2c <_ZN18PololuQTRSensorsRC11readPrivateEPj+0x1b2>
    1b0e:	e2 2f       	mov	r30, r18
    1b10:	f0 e0       	ldi	r31, 0x00	; 0
    1b12:	ee 0f       	add	r30, r30
    1b14:	ff 1f       	adc	r31, r31
    1b16:	ea 0d       	add	r30, r10
    1b18:	fb 1d       	adc	r31, r11
    1b1a:	80 81       	ld	r24, Z
    1b1c:	91 81       	ldd	r25, Z+1	; 0x01
    1b1e:	00 97       	sbiw	r24, 0x00	; 0
    1b20:	21 f4       	brne	.+8      	; 0x1b2a <_ZN18PololuQTRSensorsRC11readPrivateEPj+0x1b0>
    1b22:	8e 85       	ldd	r24, Y+14	; 0x0e
    1b24:	9f 85       	ldd	r25, Y+15	; 0x0f
    1b26:	91 83       	std	Z+1, r25	; 0x01
    1b28:	80 83       	st	Z, r24
    1b2a:	2f 5f       	subi	r18, 0xFF	; 255
    1b2c:	88 85       	ldd	r24, Y+8	; 0x08
    1b2e:	28 17       	cp	r18, r24
    1b30:	70 f3       	brcs	.-36     	; 0x1b0e <_ZN18PololuQTRSensorsRC11readPrivateEPj+0x194>
    1b32:	05 c0       	rjmp	.+10     	; 0x1b3e <_ZN18PololuQTRSensorsRC11readPrivateEPj+0x1c4>
    1b34:	f3 b0       	in	r15, 0x03	; 3
    1b36:	96 b0       	in	r9, 0x06	; 6
    1b38:	79 b0       	in	r7, 0x09	; 9
    1b3a:	10 e0       	ldi	r17, 0x00	; 0
    1b3c:	d8 cf       	rjmp	.-80     	; 0x1aee <_ZN18PololuQTRSensorsRC11readPrivateEPj+0x174>
    1b3e:	cd b7       	in	r28, 0x3d	; 61
    1b40:	de b7       	in	r29, 0x3e	; 62
    1b42:	ed e0       	ldi	r30, 0x0D	; 13
    1b44:	0c 94 de 11 	jmp	0x23bc	; 0x23bc <__epilogue_restores__+0xa>

00001b48 <_ZN22PololuQTRSensorsAnalog11readPrivateEPj>:
    1b48:	ef 92       	push	r14
    1b4a:	ff 92       	push	r15
    1b4c:	0f 93       	push	r16
    1b4e:	1f 93       	push	r17
    1b50:	cf 93       	push	r28
    1b52:	df 93       	push	r29
    1b54:	fc 01       	movw	r30, r24
    1b56:	9b 01       	movw	r18, r22
    1b58:	00 91 7c 00 	lds	r16, 0x007C
    1b5c:	10 91 7a 00 	lds	r17, 0x007A
    1b60:	e7 b0       	in	r14, 0x07	; 7
    1b62:	f8 b0       	in	r15, 0x08	; 8
    1b64:	80 91 7a 00 	lds	r24, 0x007A
    1b68:	86 fd       	sbrc	r24, 6
    1b6a:	fc cf       	rjmp	.-8      	; 0x1b64 <_ZN22PololuQTRSensorsAnalog11readPrivateEPj+0x1c>
    1b6c:	80 e0       	ldi	r24, 0x00	; 0
    1b6e:	0a c0       	rjmp	.+20     	; 0x1b84 <_ZN22PololuQTRSensorsAnalog11readPrivateEPj+0x3c>
    1b70:	a8 2f       	mov	r26, r24
    1b72:	b0 e0       	ldi	r27, 0x00	; 0
    1b74:	aa 0f       	add	r26, r26
    1b76:	bb 1f       	adc	r27, r27
    1b78:	a2 0f       	add	r26, r18
    1b7a:	b3 1f       	adc	r27, r19
    1b7c:	11 96       	adiw	r26, 0x01	; 1
    1b7e:	1c 92       	st	X, r1
    1b80:	1e 92       	st	-X, r1
    1b82:	8f 5f       	subi	r24, 0xFF	; 255
    1b84:	90 85       	ldd	r25, Z+8	; 0x08
    1b86:	89 17       	cp	r24, r25
    1b88:	98 f3       	brcs	.-26     	; 0x1b70 <_ZN22PololuQTRSensorsAnalog11readPrivateEPj+0x28>
    1b8a:	97 b1       	in	r25, 0x07	; 7
    1b8c:	82 a1       	ldd	r24, Z+34	; 0x22
    1b8e:	80 95       	com	r24
    1b90:	89 23       	and	r24, r25
    1b92:	87 b9       	out	0x07, r24	; 7
    1b94:	98 b1       	in	r25, 0x08	; 8
    1b96:	82 a1       	ldd	r24, Z+34	; 0x22
    1b98:	80 95       	com	r24
    1b9a:	89 23       	and	r24, r25
    1b9c:	88 b9       	out	0x08, r24	; 8
    1b9e:	87 e8       	ldi	r24, 0x87	; 135
    1ba0:	80 93 7a 00 	sts	0x007A, r24
    1ba4:	70 e0       	ldi	r23, 0x00	; 0
    1ba6:	29 c0       	rjmp	.+82     	; 0x1bfa <_ZN22PololuQTRSensorsAnalog11readPrivateEPj+0xb2>
    1ba8:	df 01       	movw	r26, r30
    1baa:	a6 0f       	add	r26, r22
    1bac:	b1 1d       	adc	r27, r1
    1bae:	51 96       	adiw	r26, 0x11	; 17
    1bb0:	8c 91       	ld	r24, X
    1bb2:	51 97       	sbiw	r26, 0x11	; 17
    1bb4:	80 64       	ori	r24, 0x40	; 64
    1bb6:	80 93 7c 00 	sts	0x007C, r24
    1bba:	80 91 7a 00 	lds	r24, 0x007A
    1bbe:	80 64       	ori	r24, 0x40	; 64
    1bc0:	80 93 7a 00 	sts	0x007A, r24
    1bc4:	80 91 7a 00 	lds	r24, 0x007A
    1bc8:	86 fd       	sbrc	r24, 6
    1bca:	fc cf       	rjmp	.-8      	; 0x1bc4 <_ZN22PololuQTRSensorsAnalog11readPrivateEPj+0x7c>
    1bcc:	a6 2f       	mov	r26, r22
    1bce:	b0 e0       	ldi	r27, 0x00	; 0
    1bd0:	aa 0f       	add	r26, r26
    1bd2:	bb 1f       	adc	r27, r27
    1bd4:	a2 0f       	add	r26, r18
    1bd6:	b3 1f       	adc	r27, r19
    1bd8:	40 91 78 00 	lds	r20, 0x0078
    1bdc:	50 91 79 00 	lds	r21, 0x0079
    1be0:	8d 91       	ld	r24, X+
    1be2:	9c 91       	ld	r25, X
    1be4:	11 97       	sbiw	r26, 0x01	; 1
    1be6:	84 0f       	add	r24, r20
    1be8:	95 1f       	adc	r25, r21
    1bea:	11 96       	adiw	r26, 0x01	; 1
    1bec:	9c 93       	st	X, r25
    1bee:	8e 93       	st	-X, r24
    1bf0:	6f 5f       	subi	r22, 0xFF	; 255
    1bf2:	80 85       	ldd	r24, Z+8	; 0x08
    1bf4:	68 17       	cp	r22, r24
    1bf6:	c0 f2       	brcs	.-80     	; 0x1ba8 <_ZN22PololuQTRSensorsAnalog11readPrivateEPj+0x60>
    1bf8:	7f 5f       	subi	r23, 0xFF	; 255
    1bfa:	81 a1       	ldd	r24, Z+33	; 0x21
    1bfc:	78 17       	cp	r23, r24
    1bfe:	10 f4       	brcc	.+4      	; 0x1c04 <_ZN22PololuQTRSensorsAnalog11readPrivateEPj+0xbc>
    1c00:	60 e0       	ldi	r22, 0x00	; 0
    1c02:	f7 cf       	rjmp	.-18     	; 0x1bf2 <_ZN22PololuQTRSensorsAnalog11readPrivateEPj+0xaa>
    1c04:	40 e0       	ldi	r20, 0x00	; 0
    1c06:	14 c0       	rjmp	.+40     	; 0x1c30 <_ZN22PololuQTRSensorsAnalog11readPrivateEPj+0xe8>
    1c08:	c4 2f       	mov	r28, r20
    1c0a:	d0 e0       	ldi	r29, 0x00	; 0
    1c0c:	cc 0f       	add	r28, r28
    1c0e:	dd 1f       	adc	r29, r29
    1c10:	c2 0f       	add	r28, r18
    1c12:	d3 1f       	adc	r29, r19
    1c14:	61 a1       	ldd	r22, Z+33	; 0x21
    1c16:	70 e0       	ldi	r23, 0x00	; 0
    1c18:	cb 01       	movw	r24, r22
    1c1a:	95 95       	asr	r25
    1c1c:	87 95       	ror	r24
    1c1e:	a8 81       	ld	r26, Y
    1c20:	b9 81       	ldd	r27, Y+1	; 0x01
    1c22:	8a 0f       	add	r24, r26
    1c24:	9b 1f       	adc	r25, r27
    1c26:	0e 94 49 11 	call	0x2292	; 0x2292 <__udivmodhi4>
    1c2a:	79 83       	std	Y+1, r23	; 0x01
    1c2c:	68 83       	st	Y, r22
    1c2e:	4f 5f       	subi	r20, 0xFF	; 255
    1c30:	80 85       	ldd	r24, Z+8	; 0x08
    1c32:	48 17       	cp	r20, r24
    1c34:	48 f3       	brcs	.-46     	; 0x1c08 <_ZN22PololuQTRSensorsAnalog11readPrivateEPj+0xc0>
    1c36:	00 93 7c 00 	sts	0x007C, r16
    1c3a:	10 93 7a 00 	sts	0x007A, r17
    1c3e:	f8 b8       	out	0x08, r15	; 8
    1c40:	e7 b8       	out	0x07, r14	; 7
    1c42:	cd b7       	in	r28, 0x3d	; 61
    1c44:	de b7       	in	r29, 0x3e	; 62
    1c46:	e6 e0       	ldi	r30, 0x06	; 6
    1c48:	0c 94 e5 11 	jmp	0x23ca	; 0x23ca <__epilogue_restores__+0x18>

00001c4c <_ZN16PololuQTRSensors4readEPjh>:
    1c4c:	a0 e2       	ldi	r26, 0x20	; 32
    1c4e:	b0 e0       	ldi	r27, 0x00	; 0
    1c50:	ec e2       	ldi	r30, 0x2C	; 44
    1c52:	fe e0       	ldi	r31, 0x0E	; 14
    1c54:	0c 94 c8 11 	jmp	0x2390	; 0x2390 <__prologue_saves__+0x16>
    1c58:	8c 01       	movw	r16, r24
    1c5a:	7b 01       	movw	r14, r22
    1c5c:	d4 2e       	mov	r13, r20
    1c5e:	84 2f       	mov	r24, r20
    1c60:	81 50       	subi	r24, 0x01	; 1
    1c62:	82 30       	cpi	r24, 0x02	; 2
    1c64:	18 f4       	brcc	.+6      	; 0x1c6c <_ZN16PololuQTRSensors4readEPjh+0x20>
    1c66:	c8 01       	movw	r24, r16
    1c68:	0e 94 50 0c 	call	0x18a0	; 0x18a0 <_ZN16PololuQTRSensors10emittersOnEv>
    1c6c:	d8 01       	movw	r26, r16
    1c6e:	50 96       	adiw	r26, 0x10	; 16
    1c70:	8c 91       	ld	r24, X
    1c72:	50 97       	sbiw	r26, 0x10	; 16
    1c74:	88 23       	and	r24, r24
    1c76:	89 f4       	brne	.+34     	; 0x1c9a <_ZN16PololuQTRSensors4readEPjh+0x4e>
    1c78:	c8 01       	movw	r24, r16
    1c7a:	b7 01       	movw	r22, r14
    1c7c:	0e 94 bd 0c 	call	0x197a	; 0x197a <_ZN18PololuQTRSensorsRC11readPrivateEPj>
    1c80:	c8 01       	movw	r24, r16
    1c82:	0e 94 3b 0c 	call	0x1876	; 0x1876 <_ZN16PololuQTRSensors11emittersOffEv>
    1c86:	bd 2d       	mov	r27, r13
    1c88:	b2 30       	cpi	r27, 0x02	; 2
    1c8a:	d9 f5       	brne	.+118    	; 0x1d02 <_ZN16PololuQTRSensors4readEPjh+0xb6>
    1c8c:	c8 01       	movw	r24, r16
    1c8e:	be 01       	movw	r22, r28
    1c90:	6f 5f       	subi	r22, 0xFF	; 255
    1c92:	7f 4f       	sbci	r23, 0xFF	; 255
    1c94:	0e 94 bd 0c 	call	0x197a	; 0x197a <_ZN18PololuQTRSensorsRC11readPrivateEPj>
    1c98:	10 c0       	rjmp	.+32     	; 0x1cba <_ZN16PololuQTRSensors4readEPjh+0x6e>
    1c9a:	c8 01       	movw	r24, r16
    1c9c:	b7 01       	movw	r22, r14
    1c9e:	0e 94 a4 0d 	call	0x1b48	; 0x1b48 <_ZN22PololuQTRSensorsAnalog11readPrivateEPj>
    1ca2:	c8 01       	movw	r24, r16
    1ca4:	0e 94 3b 0c 	call	0x1876	; 0x1876 <_ZN16PololuQTRSensors11emittersOffEv>
    1ca8:	ed 2d       	mov	r30, r13
    1caa:	e2 30       	cpi	r30, 0x02	; 2
    1cac:	51 f5       	brne	.+84     	; 0x1d02 <_ZN16PololuQTRSensors4readEPjh+0xb6>
    1cae:	c8 01       	movw	r24, r16
    1cb0:	be 01       	movw	r22, r28
    1cb2:	6f 5f       	subi	r22, 0xFF	; 255
    1cb4:	7f 4f       	sbci	r23, 0xFF	; 255
    1cb6:	0e 94 a4 0d 	call	0x1b48	; 0x1b48 <_ZN22PololuQTRSensorsAnalog11readPrivateEPj>
    1cba:	60 e0       	ldi	r22, 0x00	; 0
    1cbc:	ae 01       	movw	r20, r28
    1cbe:	4f 5f       	subi	r20, 0xFF	; 255
    1cc0:	5f 4f       	sbci	r21, 0xFF	; 255
    1cc2:	1b c0       	rjmp	.+54     	; 0x1cfa <_ZN16PololuQTRSensors4readEPjh+0xae>
    1cc4:	86 2f       	mov	r24, r22
    1cc6:	90 e0       	ldi	r25, 0x00	; 0
    1cc8:	88 0f       	add	r24, r24
    1cca:	99 1f       	adc	r25, r25
    1ccc:	f7 01       	movw	r30, r14
    1cce:	e8 0f       	add	r30, r24
    1cd0:	f9 1f       	adc	r31, r25
    1cd2:	84 0f       	add	r24, r20
    1cd4:	95 1f       	adc	r25, r21
    1cd6:	d8 01       	movw	r26, r16
    1cd8:	1e 96       	adiw	r26, 0x0e	; 14
    1cda:	2d 91       	ld	r18, X+
    1cdc:	3c 91       	ld	r19, X
    1cde:	1f 97       	sbiw	r26, 0x0f	; 15
    1ce0:	dc 01       	movw	r26, r24
    1ce2:	8d 91       	ld	r24, X+
    1ce4:	9c 91       	ld	r25, X
    1ce6:	11 97       	sbiw	r26, 0x01	; 1
    1ce8:	28 1b       	sub	r18, r24
    1cea:	39 0b       	sbc	r19, r25
    1cec:	80 81       	ld	r24, Z
    1cee:	91 81       	ldd	r25, Z+1	; 0x01
    1cf0:	82 0f       	add	r24, r18
    1cf2:	93 1f       	adc	r25, r19
    1cf4:	91 83       	std	Z+1, r25	; 0x01
    1cf6:	80 83       	st	Z, r24
    1cf8:	6f 5f       	subi	r22, 0xFF	; 255
    1cfa:	f8 01       	movw	r30, r16
    1cfc:	80 85       	ldd	r24, Z+8	; 0x08
    1cfe:	68 17       	cp	r22, r24
    1d00:	08 f3       	brcs	.-62     	; 0x1cc4 <_ZN16PololuQTRSensors4readEPjh+0x78>
    1d02:	a0 96       	adiw	r28, 0x20	; 32
    1d04:	e7 e0       	ldi	r30, 0x07	; 7
    1d06:	0c 94 e4 11 	jmp	0x23c8	; 0x23c8 <__epilogue_restores__+0x16>

00001d0a <_ZN16PololuQTRSensors14readCalibratedEPjh>:
    1d0a:	8f 92       	push	r8
    1d0c:	9f 92       	push	r9
    1d0e:	af 92       	push	r10
    1d10:	bf 92       	push	r11
    1d12:	cf 92       	push	r12
    1d14:	df 92       	push	r13
    1d16:	ff 92       	push	r15
    1d18:	0f 93       	push	r16
    1d1a:	1f 93       	push	r17
    1d1c:	cf 93       	push	r28
    1d1e:	df 93       	push	r29
    1d20:	ec 01       	movw	r28, r24
    1d22:	c6 2e       	mov	r12, r22
    1d24:	07 2f       	mov	r16, r23
    1d26:	f4 2e       	mov	r15, r20
    1d28:	42 30       	cpi	r20, 0x02	; 2
    1d2a:	11 f0       	breq	.+4      	; 0x1d30 <_ZN16PololuQTRSensors14readCalibratedEPjh+0x26>
    1d2c:	ff 20       	and	r15, r15
    1d2e:	51 f4       	brne	.+20     	; 0x1d44 <_ZN16PololuQTRSensors14readCalibratedEPjh+0x3a>
    1d30:	8c 81       	ldd	r24, Y+4	; 0x04
    1d32:	9d 81       	ldd	r25, Y+5	; 0x05
    1d34:	00 97       	sbiw	r24, 0x00	; 0
    1d36:	09 f4       	brne	.+2      	; 0x1d3a <_ZN16PololuQTRSensors14readCalibratedEPjh+0x30>
    1d38:	a0 c0       	rjmp	.+320    	; 0x1e7a <_ZN16PololuQTRSensors14readCalibratedEPjh+0x170>
    1d3a:	8e 81       	ldd	r24, Y+6	; 0x06
    1d3c:	9f 81       	ldd	r25, Y+7	; 0x07
    1d3e:	00 97       	sbiw	r24, 0x00	; 0
    1d40:	09 f4       	brne	.+2      	; 0x1d44 <_ZN16PololuQTRSensors14readCalibratedEPjh+0x3a>
    1d42:	9b c0       	rjmp	.+310    	; 0x1e7a <_ZN16PololuQTRSensors14readCalibratedEPjh+0x170>
    1d44:	8f 2d       	mov	r24, r15
    1d46:	81 50       	subi	r24, 0x01	; 1
    1d48:	82 30       	cpi	r24, 0x02	; 2
    1d4a:	50 f4       	brcc	.+20     	; 0x1d60 <_ZN16PololuQTRSensors14readCalibratedEPjh+0x56>
    1d4c:	88 81       	ld	r24, Y
    1d4e:	99 81       	ldd	r25, Y+1	; 0x01
    1d50:	00 97       	sbiw	r24, 0x00	; 0
    1d52:	09 f4       	brne	.+2      	; 0x1d56 <_ZN16PololuQTRSensors14readCalibratedEPjh+0x4c>
    1d54:	92 c0       	rjmp	.+292    	; 0x1e7a <_ZN16PololuQTRSensors14readCalibratedEPjh+0x170>
    1d56:	8a 81       	ldd	r24, Y+2	; 0x02
    1d58:	9b 81       	ldd	r25, Y+3	; 0x03
    1d5a:	00 97       	sbiw	r24, 0x00	; 0
    1d5c:	09 f4       	brne	.+2      	; 0x1d60 <_ZN16PololuQTRSensors14readCalibratedEPjh+0x56>
    1d5e:	8d c0       	rjmp	.+282    	; 0x1e7a <_ZN16PololuQTRSensors14readCalibratedEPjh+0x170>
    1d60:	ce 01       	movw	r24, r28
    1d62:	6c 2d       	mov	r22, r12
    1d64:	70 2f       	mov	r23, r16
    1d66:	4f 2d       	mov	r20, r15
    1d68:	0e 94 26 0e 	call	0x1c4c	; 0x1c4c <_ZN16PololuQTRSensors4readEPjh>
    1d6c:	ac 2c       	mov	r10, r12
    1d6e:	b0 2e       	mov	r11, r16
    1d70:	00 e0       	ldi	r16, 0x00	; 0
    1d72:	10 e0       	ldi	r17, 0x00	; 0
    1d74:	88 24       	eor	r8, r8
    1d76:	99 24       	eor	r9, r9
    1d78:	7a c0       	rjmp	.+244    	; 0x1e6e <_ZN16PololuQTRSensors14readCalibratedEPjh+0x164>
    1d7a:	8f 2d       	mov	r24, r15
    1d7c:	81 30       	cpi	r24, 0x01	; 1
    1d7e:	59 f4       	brne	.+22     	; 0x1d96 <_ZN16PololuQTRSensors14readCalibratedEPjh+0x8c>
    1d80:	ea 81       	ldd	r30, Y+2	; 0x02
    1d82:	fb 81       	ldd	r31, Y+3	; 0x03
    1d84:	e0 0f       	add	r30, r16
    1d86:	f1 1f       	adc	r31, r17
    1d88:	c0 80       	ld	r12, Z
    1d8a:	d1 80       	ldd	r13, Z+1	; 0x01
    1d8c:	e8 81       	ld	r30, Y
    1d8e:	f9 81       	ldd	r31, Y+1	; 0x01
    1d90:	e0 0f       	add	r30, r16
    1d92:	f1 1f       	adc	r31, r17
    1d94:	0d c0       	rjmp	.+26     	; 0x1db0 <_ZN16PololuQTRSensors14readCalibratedEPjh+0xa6>
    1d96:	8c 81       	ldd	r24, Y+4	; 0x04
    1d98:	9d 81       	ldd	r25, Y+5	; 0x05
    1d9a:	ff 20       	and	r15, r15
    1d9c:	61 f4       	brne	.+24     	; 0x1db6 <_ZN16PololuQTRSensors14readCalibratedEPjh+0xac>
    1d9e:	ee 81       	ldd	r30, Y+6	; 0x06
    1da0:	ff 81       	ldd	r31, Y+7	; 0x07
    1da2:	e0 0f       	add	r30, r16
    1da4:	f1 1f       	adc	r31, r17
    1da6:	c0 80       	ld	r12, Z
    1da8:	d1 80       	ldd	r13, Z+1	; 0x01
    1daa:	80 0f       	add	r24, r16
    1dac:	91 1f       	adc	r25, r17
    1dae:	fc 01       	movw	r30, r24
    1db0:	40 81       	ld	r20, Z
    1db2:	51 81       	ldd	r21, Z+1	; 0x01
    1db4:	2b c0       	rjmp	.+86     	; 0x1e0c <_ZN16PololuQTRSensors14readCalibratedEPjh+0x102>
    1db6:	80 0f       	add	r24, r16
    1db8:	91 1f       	adc	r25, r17
    1dba:	fc 01       	movw	r30, r24
    1dbc:	80 81       	ld	r24, Z
    1dbe:	91 81       	ldd	r25, Z+1	; 0x01
    1dc0:	e8 81       	ld	r30, Y
    1dc2:	f9 81       	ldd	r31, Y+1	; 0x01
    1dc4:	e0 0f       	add	r30, r16
    1dc6:	f1 1f       	adc	r31, r17
    1dc8:	40 81       	ld	r20, Z
    1dca:	51 81       	ldd	r21, Z+1	; 0x01
    1dcc:	ce 84       	ldd	r12, Y+14	; 0x0e
    1dce:	df 84       	ldd	r13, Y+15	; 0x0f
    1dd0:	84 17       	cp	r24, r20
    1dd2:	95 07       	cpc	r25, r21
    1dd4:	10 f4       	brcc	.+4      	; 0x1dda <_ZN16PololuQTRSensors14readCalibratedEPjh+0xd0>
    1dd6:	a6 01       	movw	r20, r12
    1dd8:	04 c0       	rjmp	.+8      	; 0x1de2 <_ZN16PololuQTRSensors14readCalibratedEPjh+0xd8>
    1dda:	4c 0d       	add	r20, r12
    1ddc:	5d 1d       	adc	r21, r13
    1dde:	48 1b       	sub	r20, r24
    1de0:	59 0b       	sbc	r21, r25
    1de2:	ee 81       	ldd	r30, Y+6	; 0x06
    1de4:	ff 81       	ldd	r31, Y+7	; 0x07
    1de6:	e0 0f       	add	r30, r16
    1de8:	f1 1f       	adc	r31, r17
    1dea:	80 81       	ld	r24, Z
    1dec:	91 81       	ldd	r25, Z+1	; 0x01
    1dee:	ea 81       	ldd	r30, Y+2	; 0x02
    1df0:	fb 81       	ldd	r31, Y+3	; 0x03
    1df2:	e0 0f       	add	r30, r16
    1df4:	f1 1f       	adc	r31, r17
    1df6:	20 81       	ld	r18, Z
    1df8:	31 81       	ldd	r19, Z+1	; 0x01
    1dfa:	ce 84       	ldd	r12, Y+14	; 0x0e
    1dfc:	df 84       	ldd	r13, Y+15	; 0x0f
    1dfe:	82 17       	cp	r24, r18
    1e00:	93 07       	cpc	r25, r19
    1e02:	20 f0       	brcs	.+8      	; 0x1e0c <_ZN16PololuQTRSensors14readCalibratedEPjh+0x102>
    1e04:	c2 0e       	add	r12, r18
    1e06:	d3 1e       	adc	r13, r19
    1e08:	c8 1a       	sub	r12, r24
    1e0a:	d9 0a       	sbc	r13, r25
    1e0c:	c4 1a       	sub	r12, r20
    1e0e:	d5 0a       	sbc	r13, r21
    1e10:	d1 f0       	breq	.+52     	; 0x1e46 <_ZN16PololuQTRSensors14readCalibratedEPjh+0x13c>
    1e12:	f5 01       	movw	r30, r10
    1e14:	60 81       	ld	r22, Z
    1e16:	71 81       	ldd	r23, Z+1	; 0x01
    1e18:	80 e0       	ldi	r24, 0x00	; 0
    1e1a:	90 e0       	ldi	r25, 0x00	; 0
    1e1c:	9a 01       	movw	r18, r20
    1e1e:	40 e0       	ldi	r20, 0x00	; 0
    1e20:	50 e0       	ldi	r21, 0x00	; 0
    1e22:	62 1b       	sub	r22, r18
    1e24:	73 0b       	sbc	r23, r19
    1e26:	84 0b       	sbc	r24, r20
    1e28:	95 0b       	sbc	r25, r21
    1e2a:	28 ee       	ldi	r18, 0xE8	; 232
    1e2c:	33 e0       	ldi	r19, 0x03	; 3
    1e2e:	40 e0       	ldi	r20, 0x00	; 0
    1e30:	50 e0       	ldi	r21, 0x00	; 0
    1e32:	0e 94 2d 11 	call	0x225a	; 0x225a <__mulsi3>
    1e36:	96 01       	movw	r18, r12
    1e38:	40 e0       	ldi	r20, 0x00	; 0
    1e3a:	50 e0       	ldi	r21, 0x00	; 0
    1e3c:	0e 94 93 11 	call	0x2326	; 0x2326 <__divmodsi4>
    1e40:	37 fd       	sbrc	r19, 7
    1e42:	0a c0       	rjmp	.+20     	; 0x1e58 <_ZN16PololuQTRSensors14readCalibratedEPjh+0x14e>
    1e44:	02 c0       	rjmp	.+4      	; 0x1e4a <_ZN16PololuQTRSensors14readCalibratedEPjh+0x140>
    1e46:	20 e0       	ldi	r18, 0x00	; 0
    1e48:	30 e0       	ldi	r19, 0x00	; 0
    1e4a:	f3 e0       	ldi	r31, 0x03	; 3
    1e4c:	29 3e       	cpi	r18, 0xE9	; 233
    1e4e:	3f 07       	cpc	r19, r31
    1e50:	2c f0       	brlt	.+10     	; 0x1e5c <_ZN16PololuQTRSensors14readCalibratedEPjh+0x152>
    1e52:	28 ee       	ldi	r18, 0xE8	; 232
    1e54:	33 e0       	ldi	r19, 0x03	; 3
    1e56:	02 c0       	rjmp	.+4      	; 0x1e5c <_ZN16PololuQTRSensors14readCalibratedEPjh+0x152>
    1e58:	20 e0       	ldi	r18, 0x00	; 0
    1e5a:	30 e0       	ldi	r19, 0x00	; 0
    1e5c:	f5 01       	movw	r30, r10
    1e5e:	21 93       	st	Z+, r18
    1e60:	31 93       	st	Z+, r19
    1e62:	5f 01       	movw	r10, r30
    1e64:	08 94       	sec
    1e66:	81 1c       	adc	r8, r1
    1e68:	91 1c       	adc	r9, r1
    1e6a:	0e 5f       	subi	r16, 0xFE	; 254
    1e6c:	1f 4f       	sbci	r17, 0xFF	; 255
    1e6e:	88 85       	ldd	r24, Y+8	; 0x08
    1e70:	90 e0       	ldi	r25, 0x00	; 0
    1e72:	88 16       	cp	r8, r24
    1e74:	99 06       	cpc	r9, r25
    1e76:	0c f4       	brge	.+2      	; 0x1e7a <_ZN16PololuQTRSensors14readCalibratedEPjh+0x170>
    1e78:	80 cf       	rjmp	.-256    	; 0x1d7a <_ZN16PololuQTRSensors14readCalibratedEPjh+0x70>
    1e7a:	df 91       	pop	r29
    1e7c:	cf 91       	pop	r28
    1e7e:	1f 91       	pop	r17
    1e80:	0f 91       	pop	r16
    1e82:	ff 90       	pop	r15
    1e84:	df 90       	pop	r13
    1e86:	cf 90       	pop	r12
    1e88:	bf 90       	pop	r11
    1e8a:	af 90       	pop	r10
    1e8c:	9f 90       	pop	r9
    1e8e:	8f 90       	pop	r8
    1e90:	08 95       	ret

00001e92 <_ZN16PololuQTRSensors8readLineEPjhh>:
    1e92:	a5 e0       	ldi	r26, 0x05	; 5
    1e94:	b0 e0       	ldi	r27, 0x00	; 0
    1e96:	ef e4       	ldi	r30, 0x4F	; 79
    1e98:	ff e0       	ldi	r31, 0x0F	; 15
    1e9a:	0c 94 bd 11 	jmp	0x237a	; 0x237a <__prologue_saves__>
    1e9e:	4c 01       	movw	r8, r24
    1ea0:	c6 2e       	mov	r12, r22
    1ea2:	e7 2e       	mov	r14, r23
    1ea4:	2d 83       	std	Y+5, r18	; 0x05
    1ea6:	0e 94 85 0e 	call	0x1d0a	; 0x1d0a <_ZN16PololuQTRSensors14readCalibratedEPjh>
    1eaa:	d4 01       	movw	r26, r8
    1eac:	18 96       	adiw	r26, 0x08	; 8
    1eae:	4c 90       	ld	r4, X
    1eb0:	18 97       	sbiw	r26, 0x08	; 8
    1eb2:	de 2c       	mov	r13, r14
    1eb4:	64 2d       	mov	r22, r4
    1eb6:	70 e0       	ldi	r23, 0x00	; 0
    1eb8:	80 e0       	ldi	r24, 0x00	; 0
    1eba:	90 e0       	ldi	r25, 0x00	; 0
    1ebc:	28 ee       	ldi	r18, 0xE8	; 232
    1ebe:	33 e0       	ldi	r19, 0x03	; 3
    1ec0:	40 e0       	ldi	r20, 0x00	; 0
    1ec2:	50 e0       	ldi	r21, 0x00	; 0
    1ec4:	0e 94 2d 11 	call	0x225a	; 0x225a <__mulsi3>
    1ec8:	69 83       	std	Y+1, r22	; 0x01
    1eca:	7a 83       	std	Y+2, r23	; 0x02
    1ecc:	8b 83       	std	Y+3, r24	; 0x03
    1ece:	9c 83       	std	Y+4, r25	; 0x04
    1ed0:	ee 24       	eor	r14, r14
    1ed2:	ff 24       	eor	r15, r15
    1ed4:	87 01       	movw	r16, r14
    1ed6:	66 24       	eor	r6, r6
    1ed8:	77 24       	eor	r7, r7
    1eda:	88 24       	eor	r8, r8
    1edc:	99 24       	eor	r9, r9
    1ede:	54 01       	movw	r10, r8
    1ee0:	55 24       	eor	r5, r5
    1ee2:	36 c0       	rjmp	.+108    	; 0x1f50 <_ZN16PololuQTRSensors8readLineEPjhh+0xbe>
    1ee4:	f6 01       	movw	r30, r12
    1ee6:	30 81       	ld	r19, Z
    1ee8:	21 81       	ldd	r18, Z+1	; 0x01
    1eea:	42 e0       	ldi	r20, 0x02	; 2
    1eec:	24 2e       	mov	r2, r20
    1eee:	31 2c       	mov	r3, r1
    1ef0:	c2 0c       	add	r12, r2
    1ef2:	d3 1c       	adc	r13, r3
    1ef4:	c9 01       	movw	r24, r18
    1ef6:	49 2f       	mov	r20, r25
    1ef8:	58 2f       	mov	r21, r24
    1efa:	1a 01       	movw	r2, r20
    1efc:	2d 81       	ldd	r18, Y+5	; 0x05
    1efe:	22 23       	and	r18, r18
    1f00:	29 f0       	breq	.+10     	; 0x1f0c <_ZN16PololuQTRSensors8readLineEPjhh+0x7a>
    1f02:	88 ee       	ldi	r24, 0xE8	; 232
    1f04:	93 e0       	ldi	r25, 0x03	; 3
    1f06:	82 19       	sub	r24, r2
    1f08:	93 09       	sbc	r25, r3
    1f0a:	1c 01       	movw	r2, r24
    1f0c:	99 ec       	ldi	r25, 0xC9	; 201
    1f0e:	29 16       	cp	r2, r25
    1f10:	31 04       	cpc	r3, r1
    1f12:	2c f4       	brge	.+10     	; 0x1f1e <_ZN16PololuQTRSensors8readLineEPjhh+0x8c>
    1f14:	a3 e3       	ldi	r26, 0x33	; 51
    1f16:	2a 16       	cp	r2, r26
    1f18:	31 04       	cpc	r3, r1
    1f1a:	94 f0       	brlt	.+36     	; 0x1f40 <_ZN16PololuQTRSensors8readLineEPjhh+0xae>
    1f1c:	02 c0       	rjmp	.+4      	; 0x1f22 <_ZN16PololuQTRSensors8readLineEPjhh+0x90>
    1f1e:	55 24       	eor	r5, r5
    1f20:	53 94       	inc	r5
    1f22:	b1 01       	movw	r22, r2
    1f24:	88 27       	eor	r24, r24
    1f26:	77 fd       	sbrc	r23, 7
    1f28:	80 95       	com	r24
    1f2a:	98 2f       	mov	r25, r24
    1f2c:	a8 01       	movw	r20, r16
    1f2e:	97 01       	movw	r18, r14
    1f30:	0e 94 2d 11 	call	0x225a	; 0x225a <__mulsi3>
    1f34:	86 0e       	add	r8, r22
    1f36:	97 1e       	adc	r9, r23
    1f38:	a8 1e       	adc	r10, r24
    1f3a:	b9 1e       	adc	r11, r25
    1f3c:	62 0c       	add	r6, r2
    1f3e:	73 1c       	adc	r7, r3
    1f40:	88 ee       	ldi	r24, 0xE8	; 232
    1f42:	93 e0       	ldi	r25, 0x03	; 3
    1f44:	a0 e0       	ldi	r26, 0x00	; 0
    1f46:	b0 e0       	ldi	r27, 0x00	; 0
    1f48:	e8 0e       	add	r14, r24
    1f4a:	f9 1e       	adc	r15, r25
    1f4c:	0a 1f       	adc	r16, r26
    1f4e:	1b 1f       	adc	r17, r27
    1f50:	89 81       	ldd	r24, Y+1	; 0x01
    1f52:	9a 81       	ldd	r25, Y+2	; 0x02
    1f54:	ab 81       	ldd	r26, Y+3	; 0x03
    1f56:	bc 81       	ldd	r27, Y+4	; 0x04
    1f58:	e8 16       	cp	r14, r24
    1f5a:	f9 06       	cpc	r15, r25
    1f5c:	0a 07       	cpc	r16, r26
    1f5e:	1b 07       	cpc	r17, r27
    1f60:	09 f6       	brne	.-126    	; 0x1ee4 <_ZN16PololuQTRSensors8readLineEPjhh+0x52>
    1f62:	55 20       	and	r5, r5
    1f64:	f1 f4       	brne	.+60     	; 0x1fa2 <_ZN16PololuQTRSensors8readLineEPjhh+0x110>
    1f66:	55 24       	eor	r5, r5
    1f68:	08 94       	sec
    1f6a:	41 08       	sbc	r4, r1
    1f6c:	51 08       	sbc	r5, r1
    1f6e:	24 ef       	ldi	r18, 0xF4	; 244
    1f70:	31 e0       	ldi	r19, 0x01	; 1
    1f72:	42 9e       	mul	r4, r18
    1f74:	c0 01       	movw	r24, r0
    1f76:	43 9e       	mul	r4, r19
    1f78:	90 0d       	add	r25, r0
    1f7a:	52 9e       	mul	r5, r18
    1f7c:	90 0d       	add	r25, r0
    1f7e:	11 24       	eor	r1, r1
    1f80:	20 91 b9 01 	lds	r18, 0x01B9
    1f84:	30 91 ba 01 	lds	r19, 0x01BA
    1f88:	28 17       	cp	r18, r24
    1f8a:	39 07       	cpc	r19, r25
    1f8c:	b4 f0       	brlt	.+44     	; 0x1fba <_ZN16PololuQTRSensors8readLineEPjhh+0x128>
    1f8e:	88 ee       	ldi	r24, 0xE8	; 232
    1f90:	93 e0       	ldi	r25, 0x03	; 3
    1f92:	48 9e       	mul	r4, r24
    1f94:	90 01       	movw	r18, r0
    1f96:	49 9e       	mul	r4, r25
    1f98:	30 0d       	add	r19, r0
    1f9a:	58 9e       	mul	r5, r24
    1f9c:	30 0d       	add	r19, r0
    1f9e:	11 24       	eor	r1, r1
    1fa0:	0e c0       	rjmp	.+28     	; 0x1fbe <_ZN16PololuQTRSensors8readLineEPjhh+0x12c>
    1fa2:	93 01       	movw	r18, r6
    1fa4:	40 e0       	ldi	r20, 0x00	; 0
    1fa6:	50 e0       	ldi	r21, 0x00	; 0
    1fa8:	c5 01       	movw	r24, r10
    1faa:	b4 01       	movw	r22, r8
    1fac:	0e 94 71 11 	call	0x22e2	; 0x22e2 <__udivmodsi4>
    1fb0:	20 93 b9 01 	sts	0x01B9, r18
    1fb4:	30 93 ba 01 	sts	0x01BA, r19
    1fb8:	02 c0       	rjmp	.+4      	; 0x1fbe <_ZN16PololuQTRSensors8readLineEPjhh+0x12c>
    1fba:	20 e0       	ldi	r18, 0x00	; 0
    1fbc:	30 e0       	ldi	r19, 0x00	; 0
    1fbe:	c9 01       	movw	r24, r18
    1fc0:	25 96       	adiw	r28, 0x05	; 5
    1fc2:	e2 e1       	ldi	r30, 0x12	; 18
    1fc4:	0c 94 d9 11 	jmp	0x23b2	; 0x23b2 <__epilogue_restores__>

00001fc8 <_ZN16PololuQTRSensors16calibrateOnOrOffEPPjS1_h>:
    1fc8:	a7 e6       	ldi	r26, 0x67	; 103
    1fca:	b0 e0       	ldi	r27, 0x00	; 0
    1fcc:	ea ee       	ldi	r30, 0xEA	; 234
    1fce:	ff e0       	ldi	r31, 0x0F	; 15
    1fd0:	0c 94 bd 11 	jmp	0x237a	; 0x237a <__prologue_saves__>
    1fd4:	8c 01       	movw	r16, r24
    1fd6:	4b 01       	movw	r8, r22
    1fd8:	6a 01       	movw	r12, r20
    1fda:	a6 96       	adiw	r28, 0x26	; 38
    1fdc:	2f af       	std	Y+63, r18	; 0x3f
    1fde:	a6 97       	sbiw	r28, 0x26	; 38
    1fe0:	da 01       	movw	r26, r20
    1fe2:	8d 91       	ld	r24, X+
    1fe4:	9c 91       	ld	r25, X
    1fe6:	11 97       	sbiw	r26, 0x01	; 1
    1fe8:	00 97       	sbiw	r24, 0x00	; 0
    1fea:	e9 f4       	brne	.+58     	; 0x2026 <_ZN16PololuQTRSensors16calibrateOnOrOffEPPjS1_h+0x5e>
    1fec:	f8 01       	movw	r30, r16
    1fee:	80 85       	ldd	r24, Z+8	; 0x08
    1ff0:	90 e0       	ldi	r25, 0x00	; 0
    1ff2:	88 0f       	add	r24, r24
    1ff4:	99 1f       	adc	r25, r25
    1ff6:	0e 94 09 12 	call	0x2412	; 0x2412 <malloc>
    1ffa:	d6 01       	movw	r26, r12
    1ffc:	11 96       	adiw	r26, 0x01	; 1
    1ffe:	9c 93       	st	X, r25
    2000:	8e 93       	st	-X, r24
    2002:	00 97       	sbiw	r24, 0x00	; 0
    2004:	09 f4       	brne	.+2      	; 0x2008 <_ZN16PololuQTRSensors16calibrateOnOrOffEPPjS1_h+0x40>
    2006:	e2 c0       	rjmp	.+452    	; 0x21cc <_ZN16PololuQTRSensors16calibrateOnOrOffEPPjS1_h+0x204>
    2008:	fc 01       	movw	r30, r24
    200a:	80 e0       	ldi	r24, 0x00	; 0
    200c:	90 e0       	ldi	r25, 0x00	; 0
    200e:	03 c0       	rjmp	.+6      	; 0x2016 <_ZN16PololuQTRSensors16calibrateOnOrOffEPPjS1_h+0x4e>
    2010:	11 92       	st	Z+, r1
    2012:	11 92       	st	Z+, r1
    2014:	01 96       	adiw	r24, 0x01	; 1
    2016:	d8 01       	movw	r26, r16
    2018:	18 96       	adiw	r26, 0x08	; 8
    201a:	2c 91       	ld	r18, X
    201c:	18 97       	sbiw	r26, 0x08	; 8
    201e:	30 e0       	ldi	r19, 0x00	; 0
    2020:	82 17       	cp	r24, r18
    2022:	93 07       	cpc	r25, r19
    2024:	ac f3       	brlt	.-22     	; 0x2010 <_ZN16PololuQTRSensors16calibrateOnOrOffEPPjS1_h+0x48>
    2026:	f4 01       	movw	r30, r8
    2028:	80 81       	ld	r24, Z
    202a:	91 81       	ldd	r25, Z+1	; 0x01
    202c:	00 97       	sbiw	r24, 0x00	; 0
    202e:	89 f0       	breq	.+34     	; 0x2052 <_ZN16PololuQTRSensors16calibrateOnOrOffEPPjS1_h+0x8a>
    2030:	ee 24       	eor	r14, r14
    2032:	ff 24       	eor	r15, r15
    2034:	5e 01       	movw	r10, r28
    2036:	08 94       	sec
    2038:	a1 1c       	adc	r10, r1
    203a:	b1 1c       	adc	r11, r1
    203c:	b1 e4       	ldi	r27, 0x41	; 65
    203e:	6b 2e       	mov	r6, r27
    2040:	71 2c       	mov	r7, r1
    2042:	6c 0e       	add	r6, r28
    2044:	7d 1e       	adc	r7, r29
    2046:	a1 e2       	ldi	r26, 0x21	; 33
    2048:	4a 2e       	mov	r4, r26
    204a:	51 2c       	mov	r5, r1
    204c:	4c 0e       	add	r4, r28
    204e:	5d 1e       	adc	r5, r29
    2050:	23 c0       	rjmp	.+70     	; 0x2098 <_ZN16PololuQTRSensors16calibrateOnOrOffEPPjS1_h+0xd0>
    2052:	d8 01       	movw	r26, r16
    2054:	18 96       	adiw	r26, 0x08	; 8
    2056:	8c 91       	ld	r24, X
    2058:	90 e0       	ldi	r25, 0x00	; 0
    205a:	88 0f       	add	r24, r24
    205c:	99 1f       	adc	r25, r25
    205e:	0e 94 09 12 	call	0x2412	; 0x2412 <malloc>
    2062:	f4 01       	movw	r30, r8
    2064:	91 83       	std	Z+1, r25	; 0x01
    2066:	80 83       	st	Z, r24
    2068:	00 97       	sbiw	r24, 0x00	; 0
    206a:	09 f4       	brne	.+2      	; 0x206e <_ZN16PololuQTRSensors16calibrateOnOrOffEPPjS1_h+0xa6>
    206c:	af c0       	rjmp	.+350    	; 0x21cc <_ZN16PololuQTRSensors16calibrateOnOrOffEPPjS1_h+0x204>
    206e:	fc 01       	movw	r30, r24
    2070:	80 e0       	ldi	r24, 0x00	; 0
    2072:	90 e0       	ldi	r25, 0x00	; 0
    2074:	d8 01       	movw	r26, r16
    2076:	07 c0       	rjmp	.+14     	; 0x2086 <_ZN16PololuQTRSensors16calibrateOnOrOffEPPjS1_h+0xbe>
    2078:	1e 96       	adiw	r26, 0x0e	; 14
    207a:	2d 91       	ld	r18, X+
    207c:	3c 91       	ld	r19, X
    207e:	1f 97       	sbiw	r26, 0x0f	; 15
    2080:	21 93       	st	Z+, r18
    2082:	31 93       	st	Z+, r19
    2084:	01 96       	adiw	r24, 0x01	; 1
    2086:	18 96       	adiw	r26, 0x08	; 8
    2088:	2c 91       	ld	r18, X
    208a:	18 97       	sbiw	r26, 0x08	; 8
    208c:	30 e0       	ldi	r19, 0x00	; 0
    208e:	82 17       	cp	r24, r18
    2090:	93 07       	cpc	r25, r19
    2092:	94 f3       	brlt	.-28     	; 0x2078 <_ZN16PololuQTRSensors16calibrateOnOrOffEPPjS1_h+0xb0>
    2094:	8d 01       	movw	r16, r26
    2096:	cc cf       	rjmp	.-104    	; 0x2030 <_ZN16PololuQTRSensors16calibrateOnOrOffEPPjS1_h+0x68>
    2098:	c8 01       	movw	r24, r16
    209a:	b5 01       	movw	r22, r10
    209c:	a6 96       	adiw	r28, 0x26	; 38
    209e:	4f ad       	ldd	r20, Y+63	; 0x3f
    20a0:	a6 97       	sbiw	r28, 0x26	; 38
    20a2:	0e 94 26 0e 	call	0x1c4c	; 0x1c4c <_ZN16PololuQTRSensors4readEPjh>
    20a6:	d8 01       	movw	r26, r16
    20a8:	18 96       	adiw	r26, 0x08	; 8
    20aa:	8c 91       	ld	r24, X
    20ac:	18 97       	sbiw	r26, 0x08	; 8
    20ae:	e8 2f       	mov	r30, r24
    20b0:	f0 e0       	ldi	r31, 0x00	; 0
    20b2:	a5 96       	adiw	r28, 0x25	; 37
    20b4:	ff af       	std	Y+63, r31	; 0x3f
    20b6:	ee af       	std	Y+62, r30	; 0x3e
    20b8:	a5 97       	sbiw	r28, 0x25	; 37
    20ba:	13 01       	movw	r2, r6
    20bc:	f5 01       	movw	r30, r10
    20be:	a3 96       	adiw	r28, 0x23	; 35
    20c0:	5f ae       	std	Y+63, r5	; 0x3f
    20c2:	4e ae       	std	Y+62, r4	; 0x3e
    20c4:	a3 97       	sbiw	r28, 0x23	; 35
    20c6:	93 01       	movw	r18, r6
    20c8:	40 e0       	ldi	r20, 0x00	; 0
    20ca:	50 e0       	ldi	r21, 0x00	; 0
    20cc:	a8 96       	adiw	r28, 0x28	; 40
    20ce:	5f ae       	std	Y+63, r5	; 0x3f
    20d0:	4e ae       	std	Y+62, r4	; 0x3e
    20d2:	a8 97       	sbiw	r28, 0x28	; 40
    20d4:	37 c0       	rjmp	.+110    	; 0x2144 <_ZN16PololuQTRSensors16calibrateOnOrOffEPPjS1_h+0x17c>
    20d6:	e1 14       	cp	r14, r1
    20d8:	f1 04       	cpc	r15, r1
    20da:	61 f0       	breq	.+24     	; 0x20f4 <_ZN16PololuQTRSensors16calibrateOnOrOffEPPjS1_h+0x12c>
    20dc:	a8 96       	adiw	r28, 0x28	; 40
    20de:	ae ad       	ldd	r26, Y+62	; 0x3e
    20e0:	bf ad       	ldd	r27, Y+63	; 0x3f
    20e2:	a8 97       	sbiw	r28, 0x28	; 40
    20e4:	6d 91       	ld	r22, X+
    20e6:	7c 91       	ld	r23, X
    20e8:	11 97       	sbiw	r26, 0x01	; 1
    20ea:	80 81       	ld	r24, Z
    20ec:	91 81       	ldd	r25, Z+1	; 0x01
    20ee:	68 17       	cp	r22, r24
    20f0:	79 07       	cpc	r23, r25
    20f2:	60 f4       	brcc	.+24     	; 0x210c <_ZN16PololuQTRSensors16calibrateOnOrOffEPPjS1_h+0x144>
    20f4:	80 81       	ld	r24, Z
    20f6:	91 81       	ldd	r25, Z+1	; 0x01
    20f8:	a8 96       	adiw	r28, 0x28	; 40
    20fa:	ae ad       	ldd	r26, Y+62	; 0x3e
    20fc:	bf ad       	ldd	r27, Y+63	; 0x3f
    20fe:	a8 97       	sbiw	r28, 0x28	; 40
    2100:	11 96       	adiw	r26, 0x01	; 1
    2102:	9c 93       	st	X, r25
    2104:	8e 93       	st	-X, r24
    2106:	e1 14       	cp	r14, r1
    2108:	f1 04       	cpc	r15, r1
    210a:	49 f0       	breq	.+18     	; 0x211e <_ZN16PololuQTRSensors16calibrateOnOrOffEPPjS1_h+0x156>
    210c:	d9 01       	movw	r26, r18
    210e:	6d 91       	ld	r22, X+
    2110:	7c 91       	ld	r23, X
    2112:	11 97       	sbiw	r26, 0x01	; 1
    2114:	80 81       	ld	r24, Z
    2116:	91 81       	ldd	r25, Z+1	; 0x01
    2118:	86 17       	cp	r24, r22
    211a:	97 07       	cpc	r25, r23
    211c:	28 f4       	brcc	.+10     	; 0x2128 <_ZN16PololuQTRSensors16calibrateOnOrOffEPPjS1_h+0x160>
    211e:	80 81       	ld	r24, Z
    2120:	91 81       	ldd	r25, Z+1	; 0x01
    2122:	d9 01       	movw	r26, r18
    2124:	8d 93       	st	X+, r24
    2126:	9c 93       	st	X, r25
    2128:	4f 5f       	subi	r20, 0xFF	; 255
    212a:	5f 4f       	sbci	r21, 0xFF	; 255
    212c:	2e 5f       	subi	r18, 0xFE	; 254
    212e:	3f 4f       	sbci	r19, 0xFF	; 255
    2130:	32 96       	adiw	r30, 0x02	; 2
    2132:	a8 96       	adiw	r28, 0x28	; 40
    2134:	8e ad       	ldd	r24, Y+62	; 0x3e
    2136:	9f ad       	ldd	r25, Y+63	; 0x3f
    2138:	a8 97       	sbiw	r28, 0x28	; 40
    213a:	02 96       	adiw	r24, 0x02	; 2
    213c:	a8 96       	adiw	r28, 0x28	; 40
    213e:	9f af       	std	Y+63, r25	; 0x3f
    2140:	8e af       	std	Y+62, r24	; 0x3e
    2142:	a8 97       	sbiw	r28, 0x28	; 40
    2144:	a5 96       	adiw	r28, 0x25	; 37
    2146:	ae ad       	ldd	r26, Y+62	; 0x3e
    2148:	bf ad       	ldd	r27, Y+63	; 0x3f
    214a:	a5 97       	sbiw	r28, 0x25	; 37
    214c:	4a 17       	cp	r20, r26
    214e:	5b 07       	cpc	r21, r27
    2150:	14 f2       	brlt	.-124    	; 0x20d6 <_ZN16PololuQTRSensors16calibrateOnOrOffEPPjS1_h+0x10e>
    2152:	08 94       	sec
    2154:	e1 1c       	adc	r14, r1
    2156:	f1 1c       	adc	r15, r1
    2158:	ba e0       	ldi	r27, 0x0A	; 10
    215a:	eb 16       	cp	r14, r27
    215c:	f1 04       	cpc	r15, r1
    215e:	09 f0       	breq	.+2      	; 0x2162 <_ZN16PololuQTRSensors16calibrateOnOrOffEPPjS1_h+0x19a>
    2160:	9b cf       	rjmp	.-202    	; 0x2098 <_ZN16PololuQTRSensors16calibrateOnOrOffEPPjS1_h+0xd0>
    2162:	80 e0       	ldi	r24, 0x00	; 0
    2164:	90 e0       	ldi	r25, 0x00	; 0
    2166:	2c c0       	rjmp	.+88     	; 0x21c0 <_ZN16PololuQTRSensors16calibrateOnOrOffEPPjS1_h+0x1f8>
    2168:	f1 01       	movw	r30, r2
    216a:	41 91       	ld	r20, Z+
    216c:	51 91       	ld	r21, Z+
    216e:	1f 01       	movw	r2, r30
    2170:	bc 01       	movw	r22, r24
    2172:	66 0f       	add	r22, r22
    2174:	77 1f       	adc	r23, r23
    2176:	d6 01       	movw	r26, r12
    2178:	ed 91       	ld	r30, X+
    217a:	fc 91       	ld	r31, X
    217c:	11 97       	sbiw	r26, 0x01	; 1
    217e:	e6 0f       	add	r30, r22
    2180:	f7 1f       	adc	r31, r23
    2182:	20 81       	ld	r18, Z
    2184:	31 81       	ldd	r19, Z+1	; 0x01
    2186:	24 17       	cp	r18, r20
    2188:	35 07       	cpc	r19, r21
    218a:	10 f4       	brcc	.+4      	; 0x2190 <_ZN16PololuQTRSensors16calibrateOnOrOffEPPjS1_h+0x1c8>
    218c:	51 83       	std	Z+1, r21	; 0x01
    218e:	40 83       	st	Z, r20
    2190:	a3 96       	adiw	r28, 0x23	; 35
    2192:	ee ad       	ldd	r30, Y+62	; 0x3e
    2194:	ff ad       	ldd	r31, Y+63	; 0x3f
    2196:	a3 97       	sbiw	r28, 0x23	; 35
    2198:	41 91       	ld	r20, Z+
    219a:	51 91       	ld	r21, Z+
    219c:	a3 96       	adiw	r28, 0x23	; 35
    219e:	ff af       	std	Y+63, r31	; 0x3f
    21a0:	ee af       	std	Y+62, r30	; 0x3e
    21a2:	a3 97       	sbiw	r28, 0x23	; 35
    21a4:	d4 01       	movw	r26, r8
    21a6:	ed 91       	ld	r30, X+
    21a8:	fc 91       	ld	r31, X
    21aa:	11 97       	sbiw	r26, 0x01	; 1
    21ac:	e6 0f       	add	r30, r22
    21ae:	f7 1f       	adc	r31, r23
    21b0:	20 81       	ld	r18, Z
    21b2:	31 81       	ldd	r19, Z+1	; 0x01
    21b4:	42 17       	cp	r20, r18
    21b6:	53 07       	cpc	r21, r19
    21b8:	10 f4       	brcc	.+4      	; 0x21be <_ZN16PololuQTRSensors16calibrateOnOrOffEPPjS1_h+0x1f6>
    21ba:	51 83       	std	Z+1, r21	; 0x01
    21bc:	40 83       	st	Z, r20
    21be:	01 96       	adiw	r24, 0x01	; 1
    21c0:	f8 01       	movw	r30, r16
    21c2:	20 85       	ldd	r18, Z+8	; 0x08
    21c4:	30 e0       	ldi	r19, 0x00	; 0
    21c6:	82 17       	cp	r24, r18
    21c8:	93 07       	cpc	r25, r19
    21ca:	74 f2       	brlt	.-100    	; 0x2168 <_ZN16PololuQTRSensors16calibrateOnOrOffEPPjS1_h+0x1a0>
    21cc:	c9 59       	subi	r28, 0x99	; 153
    21ce:	df 4f       	sbci	r29, 0xFF	; 255
    21d0:	e2 e1       	ldi	r30, 0x12	; 18
    21d2:	0c 94 d9 11 	jmp	0x23b2	; 0x23b2 <__epilogue_restores__>

000021d6 <_ZN16PololuQTRSensors9calibrateEh>:
    21d6:	1f 93       	push	r17
    21d8:	cf 93       	push	r28
    21da:	df 93       	push	r29
    21dc:	ec 01       	movw	r28, r24
    21de:	16 2f       	mov	r17, r22
    21e0:	86 2f       	mov	r24, r22
    21e2:	81 50       	subi	r24, 0x01	; 1
    21e4:	82 30       	cpi	r24, 0x02	; 2
    21e6:	58 f4       	brcc	.+22     	; 0x21fe <_ZN16PololuQTRSensors9calibrateEh+0x28>
    21e8:	ae 01       	movw	r20, r28
    21ea:	4e 5f       	subi	r20, 0xFE	; 254
    21ec:	5f 4f       	sbci	r21, 0xFF	; 255
    21ee:	ce 01       	movw	r24, r28
    21f0:	be 01       	movw	r22, r28
    21f2:	21 e0       	ldi	r18, 0x01	; 1
    21f4:	0e 94 e4 0f 	call	0x1fc8	; 0x1fc8 <_ZN16PololuQTRSensors16calibrateOnOrOffEPPjS1_h>
    21f8:	12 30       	cpi	r17, 0x02	; 2
    21fa:	19 f0       	breq	.+6      	; 0x2202 <_ZN16PololuQTRSensors9calibrateEh+0x2c>
    21fc:	0c c0       	rjmp	.+24     	; 0x2216 <_ZN16PololuQTRSensors9calibrateEh+0x40>
    21fe:	66 23       	and	r22, r22
    2200:	51 f4       	brne	.+20     	; 0x2216 <_ZN16PololuQTRSensors9calibrateEh+0x40>
    2202:	be 01       	movw	r22, r28
    2204:	6c 5f       	subi	r22, 0xFC	; 252
    2206:	7f 4f       	sbci	r23, 0xFF	; 255
    2208:	ae 01       	movw	r20, r28
    220a:	4a 5f       	subi	r20, 0xFA	; 250
    220c:	5f 4f       	sbci	r21, 0xFF	; 255
    220e:	ce 01       	movw	r24, r28
    2210:	20 e0       	ldi	r18, 0x00	; 0
    2212:	0e 94 e4 0f 	call	0x1fc8	; 0x1fc8 <_ZN16PololuQTRSensors16calibrateOnOrOffEPPjS1_h>
    2216:	df 91       	pop	r29
    2218:	cf 91       	pop	r28
    221a:	1f 91       	pop	r17
    221c:	08 95       	ret

0000221e <_ZN16PololuQTRSensorsD1Ev>:
    221e:	cf 93       	push	r28
    2220:	df 93       	push	r29
    2222:	ec 01       	movw	r28, r24
    2224:	8a 81       	ldd	r24, Y+2	; 0x02
    2226:	9b 81       	ldd	r25, Y+3	; 0x03
    2228:	00 97       	sbiw	r24, 0x00	; 0
    222a:	11 f0       	breq	.+4      	; 0x2230 <_ZN16PololuQTRSensorsD1Ev+0x12>
    222c:	0e 94 a1 12 	call	0x2542	; 0x2542 <free>
    2230:	8e 81       	ldd	r24, Y+6	; 0x06
    2232:	9f 81       	ldd	r25, Y+7	; 0x07
    2234:	00 97       	sbiw	r24, 0x00	; 0
    2236:	11 f0       	breq	.+4      	; 0x223c <_ZN16PololuQTRSensorsD1Ev+0x1e>
    2238:	0e 94 a1 12 	call	0x2542	; 0x2542 <free>
    223c:	88 81       	ld	r24, Y
    223e:	99 81       	ldd	r25, Y+1	; 0x01
    2240:	00 97       	sbiw	r24, 0x00	; 0
    2242:	11 f0       	breq	.+4      	; 0x2248 <_ZN16PololuQTRSensorsD1Ev+0x2a>
    2244:	0e 94 a1 12 	call	0x2542	; 0x2542 <free>
    2248:	8c 81       	ldd	r24, Y+4	; 0x04
    224a:	9d 81       	ldd	r25, Y+5	; 0x05
    224c:	00 97       	sbiw	r24, 0x00	; 0
    224e:	11 f0       	breq	.+4      	; 0x2254 <_ZN16PololuQTRSensorsD1Ev+0x36>
    2250:	0e 94 a1 12 	call	0x2542	; 0x2542 <free>
    2254:	df 91       	pop	r29
    2256:	cf 91       	pop	r28
    2258:	08 95       	ret

0000225a <__mulsi3>:
    225a:	db 01       	movw	r26, r22
    225c:	8f 93       	push	r24
    225e:	9f 93       	push	r25
    2260:	0e 94 b2 11 	call	0x2364	; 0x2364 <__muluhisi3>
    2264:	bf 91       	pop	r27
    2266:	af 91       	pop	r26
    2268:	a2 9f       	mul	r26, r18
    226a:	80 0d       	add	r24, r0
    226c:	91 1d       	adc	r25, r1
    226e:	a3 9f       	mul	r26, r19
    2270:	90 0d       	add	r25, r0
    2272:	b2 9f       	mul	r27, r18
    2274:	90 0d       	add	r25, r0
    2276:	11 24       	eor	r1, r1
    2278:	08 95       	ret

0000227a <__udivmodqi4>:
    227a:	99 1b       	sub	r25, r25
    227c:	79 e0       	ldi	r23, 0x09	; 9
    227e:	04 c0       	rjmp	.+8      	; 0x2288 <__udivmodqi4_ep>

00002280 <__udivmodqi4_loop>:
    2280:	99 1f       	adc	r25, r25
    2282:	96 17       	cp	r25, r22
    2284:	08 f0       	brcs	.+2      	; 0x2288 <__udivmodqi4_ep>
    2286:	96 1b       	sub	r25, r22

00002288 <__udivmodqi4_ep>:
    2288:	88 1f       	adc	r24, r24
    228a:	7a 95       	dec	r23
    228c:	c9 f7       	brne	.-14     	; 0x2280 <__udivmodqi4_loop>
    228e:	80 95       	com	r24
    2290:	08 95       	ret

00002292 <__udivmodhi4>:
    2292:	aa 1b       	sub	r26, r26
    2294:	bb 1b       	sub	r27, r27
    2296:	51 e1       	ldi	r21, 0x11	; 17
    2298:	07 c0       	rjmp	.+14     	; 0x22a8 <__udivmodhi4_ep>

0000229a <__udivmodhi4_loop>:
    229a:	aa 1f       	adc	r26, r26
    229c:	bb 1f       	adc	r27, r27
    229e:	a6 17       	cp	r26, r22
    22a0:	b7 07       	cpc	r27, r23
    22a2:	10 f0       	brcs	.+4      	; 0x22a8 <__udivmodhi4_ep>
    22a4:	a6 1b       	sub	r26, r22
    22a6:	b7 0b       	sbc	r27, r23

000022a8 <__udivmodhi4_ep>:
    22a8:	88 1f       	adc	r24, r24
    22aa:	99 1f       	adc	r25, r25
    22ac:	5a 95       	dec	r21
    22ae:	a9 f7       	brne	.-22     	; 0x229a <__udivmodhi4_loop>
    22b0:	80 95       	com	r24
    22b2:	90 95       	com	r25
    22b4:	bc 01       	movw	r22, r24
    22b6:	cd 01       	movw	r24, r26
    22b8:	08 95       	ret

000022ba <__divmodhi4>:
    22ba:	97 fb       	bst	r25, 7
    22bc:	07 2e       	mov	r0, r23
    22be:	16 f4       	brtc	.+4      	; 0x22c4 <__divmodhi4+0xa>
    22c0:	00 94       	com	r0
    22c2:	07 d0       	rcall	.+14     	; 0x22d2 <__divmodhi4_neg1>
    22c4:	77 fd       	sbrc	r23, 7
    22c6:	09 d0       	rcall	.+18     	; 0x22da <__divmodhi4_neg2>
    22c8:	0e 94 49 11 	call	0x2292	; 0x2292 <__udivmodhi4>
    22cc:	07 fc       	sbrc	r0, 7
    22ce:	05 d0       	rcall	.+10     	; 0x22da <__divmodhi4_neg2>
    22d0:	3e f4       	brtc	.+14     	; 0x22e0 <__divmodhi4_exit>

000022d2 <__divmodhi4_neg1>:
    22d2:	90 95       	com	r25
    22d4:	81 95       	neg	r24
    22d6:	9f 4f       	sbci	r25, 0xFF	; 255
    22d8:	08 95       	ret

000022da <__divmodhi4_neg2>:
    22da:	70 95       	com	r23
    22dc:	61 95       	neg	r22
    22de:	7f 4f       	sbci	r23, 0xFF	; 255

000022e0 <__divmodhi4_exit>:
    22e0:	08 95       	ret

000022e2 <__udivmodsi4>:
    22e2:	a1 e2       	ldi	r26, 0x21	; 33
    22e4:	1a 2e       	mov	r1, r26
    22e6:	aa 1b       	sub	r26, r26
    22e8:	bb 1b       	sub	r27, r27
    22ea:	fd 01       	movw	r30, r26
    22ec:	0d c0       	rjmp	.+26     	; 0x2308 <__udivmodsi4_ep>

000022ee <__udivmodsi4_loop>:
    22ee:	aa 1f       	adc	r26, r26
    22f0:	bb 1f       	adc	r27, r27
    22f2:	ee 1f       	adc	r30, r30
    22f4:	ff 1f       	adc	r31, r31
    22f6:	a2 17       	cp	r26, r18
    22f8:	b3 07       	cpc	r27, r19
    22fa:	e4 07       	cpc	r30, r20
    22fc:	f5 07       	cpc	r31, r21
    22fe:	20 f0       	brcs	.+8      	; 0x2308 <__udivmodsi4_ep>
    2300:	a2 1b       	sub	r26, r18
    2302:	b3 0b       	sbc	r27, r19
    2304:	e4 0b       	sbc	r30, r20
    2306:	f5 0b       	sbc	r31, r21

00002308 <__udivmodsi4_ep>:
    2308:	66 1f       	adc	r22, r22
    230a:	77 1f       	adc	r23, r23
    230c:	88 1f       	adc	r24, r24
    230e:	99 1f       	adc	r25, r25
    2310:	1a 94       	dec	r1
    2312:	69 f7       	brne	.-38     	; 0x22ee <__udivmodsi4_loop>
    2314:	60 95       	com	r22
    2316:	70 95       	com	r23
    2318:	80 95       	com	r24
    231a:	90 95       	com	r25
    231c:	9b 01       	movw	r18, r22
    231e:	ac 01       	movw	r20, r24
    2320:	bd 01       	movw	r22, r26
    2322:	cf 01       	movw	r24, r30
    2324:	08 95       	ret

00002326 <__divmodsi4>:
    2326:	05 2e       	mov	r0, r21
    2328:	97 fb       	bst	r25, 7
    232a:	1e f4       	brtc	.+6      	; 0x2332 <__divmodsi4+0xc>
    232c:	00 94       	com	r0
    232e:	0e 94 aa 11 	call	0x2354	; 0x2354 <__negsi2>
    2332:	57 fd       	sbrc	r21, 7
    2334:	07 d0       	rcall	.+14     	; 0x2344 <__divmodsi4_neg2>
    2336:	0e 94 71 11 	call	0x22e2	; 0x22e2 <__udivmodsi4>
    233a:	07 fc       	sbrc	r0, 7
    233c:	03 d0       	rcall	.+6      	; 0x2344 <__divmodsi4_neg2>
    233e:	4e f4       	brtc	.+18     	; 0x2352 <__divmodsi4_exit>
    2340:	0c 94 aa 11 	jmp	0x2354	; 0x2354 <__negsi2>

00002344 <__divmodsi4_neg2>:
    2344:	50 95       	com	r21
    2346:	40 95       	com	r20
    2348:	30 95       	com	r19
    234a:	21 95       	neg	r18
    234c:	3f 4f       	sbci	r19, 0xFF	; 255
    234e:	4f 4f       	sbci	r20, 0xFF	; 255
    2350:	5f 4f       	sbci	r21, 0xFF	; 255

00002352 <__divmodsi4_exit>:
    2352:	08 95       	ret

00002354 <__negsi2>:
    2354:	90 95       	com	r25
    2356:	80 95       	com	r24
    2358:	70 95       	com	r23
    235a:	61 95       	neg	r22
    235c:	7f 4f       	sbci	r23, 0xFF	; 255
    235e:	8f 4f       	sbci	r24, 0xFF	; 255
    2360:	9f 4f       	sbci	r25, 0xFF	; 255
    2362:	08 95       	ret

00002364 <__muluhisi3>:
    2364:	0e 94 fa 11 	call	0x23f4	; 0x23f4 <__umulhisi3>
    2368:	a5 9f       	mul	r26, r21
    236a:	90 0d       	add	r25, r0
    236c:	b4 9f       	mul	r27, r20
    236e:	90 0d       	add	r25, r0
    2370:	a4 9f       	mul	r26, r20
    2372:	80 0d       	add	r24, r0
    2374:	91 1d       	adc	r25, r1
    2376:	11 24       	eor	r1, r1
    2378:	08 95       	ret

0000237a <__prologue_saves__>:
    237a:	2f 92       	push	r2
    237c:	3f 92       	push	r3
    237e:	4f 92       	push	r4
    2380:	5f 92       	push	r5
    2382:	6f 92       	push	r6
    2384:	7f 92       	push	r7
    2386:	8f 92       	push	r8
    2388:	9f 92       	push	r9
    238a:	af 92       	push	r10
    238c:	bf 92       	push	r11
    238e:	cf 92       	push	r12
    2390:	df 92       	push	r13
    2392:	ef 92       	push	r14
    2394:	ff 92       	push	r15
    2396:	0f 93       	push	r16
    2398:	1f 93       	push	r17
    239a:	cf 93       	push	r28
    239c:	df 93       	push	r29
    239e:	cd b7       	in	r28, 0x3d	; 61
    23a0:	de b7       	in	r29, 0x3e	; 62
    23a2:	ca 1b       	sub	r28, r26
    23a4:	db 0b       	sbc	r29, r27
    23a6:	0f b6       	in	r0, 0x3f	; 63
    23a8:	f8 94       	cli
    23aa:	de bf       	out	0x3e, r29	; 62
    23ac:	0f be       	out	0x3f, r0	; 63
    23ae:	cd bf       	out	0x3d, r28	; 61
    23b0:	09 94       	ijmp

000023b2 <__epilogue_restores__>:
    23b2:	2a 88       	ldd	r2, Y+18	; 0x12
    23b4:	39 88       	ldd	r3, Y+17	; 0x11
    23b6:	48 88       	ldd	r4, Y+16	; 0x10
    23b8:	5f 84       	ldd	r5, Y+15	; 0x0f
    23ba:	6e 84       	ldd	r6, Y+14	; 0x0e
    23bc:	7d 84       	ldd	r7, Y+13	; 0x0d
    23be:	8c 84       	ldd	r8, Y+12	; 0x0c
    23c0:	9b 84       	ldd	r9, Y+11	; 0x0b
    23c2:	aa 84       	ldd	r10, Y+10	; 0x0a
    23c4:	b9 84       	ldd	r11, Y+9	; 0x09
    23c6:	c8 84       	ldd	r12, Y+8	; 0x08
    23c8:	df 80       	ldd	r13, Y+7	; 0x07
    23ca:	ee 80       	ldd	r14, Y+6	; 0x06
    23cc:	fd 80       	ldd	r15, Y+5	; 0x05
    23ce:	0c 81       	ldd	r16, Y+4	; 0x04
    23d0:	1b 81       	ldd	r17, Y+3	; 0x03
    23d2:	aa 81       	ldd	r26, Y+2	; 0x02
    23d4:	b9 81       	ldd	r27, Y+1	; 0x01
    23d6:	ce 0f       	add	r28, r30
    23d8:	d1 1d       	adc	r29, r1
    23da:	0f b6       	in	r0, 0x3f	; 63
    23dc:	f8 94       	cli
    23de:	de bf       	out	0x3e, r29	; 62
    23e0:	0f be       	out	0x3f, r0	; 63
    23e2:	cd bf       	out	0x3d, r28	; 61
    23e4:	ed 01       	movw	r28, r26
    23e6:	08 95       	ret

000023e8 <__tablejump2__>:
    23e8:	ee 0f       	add	r30, r30
    23ea:	ff 1f       	adc	r31, r31

000023ec <__tablejump__>:
    23ec:	05 90       	lpm	r0, Z+
    23ee:	f4 91       	lpm	r31, Z
    23f0:	e0 2d       	mov	r30, r0
    23f2:	09 94       	ijmp

000023f4 <__umulhisi3>:
    23f4:	a2 9f       	mul	r26, r18
    23f6:	b0 01       	movw	r22, r0
    23f8:	b3 9f       	mul	r27, r19
    23fa:	c0 01       	movw	r24, r0
    23fc:	a3 9f       	mul	r26, r19
    23fe:	70 0d       	add	r23, r0
    2400:	81 1d       	adc	r24, r1
    2402:	11 24       	eor	r1, r1
    2404:	91 1d       	adc	r25, r1
    2406:	b2 9f       	mul	r27, r18
    2408:	70 0d       	add	r23, r0
    240a:	81 1d       	adc	r24, r1
    240c:	11 24       	eor	r1, r1
    240e:	91 1d       	adc	r25, r1
    2410:	08 95       	ret

00002412 <malloc>:
    2412:	cf 93       	push	r28
    2414:	df 93       	push	r29
    2416:	82 30       	cpi	r24, 0x02	; 2
    2418:	91 05       	cpc	r25, r1
    241a:	10 f4       	brcc	.+4      	; 0x2420 <malloc+0xe>
    241c:	82 e0       	ldi	r24, 0x02	; 2
    241e:	90 e0       	ldi	r25, 0x00	; 0
    2420:	e0 91 bf 01 	lds	r30, 0x01BF
    2424:	f0 91 c0 01 	lds	r31, 0x01C0
    2428:	20 e0       	ldi	r18, 0x00	; 0
    242a:	30 e0       	ldi	r19, 0x00	; 0
    242c:	a0 e0       	ldi	r26, 0x00	; 0
    242e:	b0 e0       	ldi	r27, 0x00	; 0
    2430:	30 97       	sbiw	r30, 0x00	; 0
    2432:	39 f1       	breq	.+78     	; 0x2482 <malloc+0x70>
    2434:	40 81       	ld	r20, Z
    2436:	51 81       	ldd	r21, Z+1	; 0x01
    2438:	48 17       	cp	r20, r24
    243a:	59 07       	cpc	r21, r25
    243c:	b8 f0       	brcs	.+46     	; 0x246c <malloc+0x5a>
    243e:	48 17       	cp	r20, r24
    2440:	59 07       	cpc	r21, r25
    2442:	71 f4       	brne	.+28     	; 0x2460 <malloc+0x4e>
    2444:	82 81       	ldd	r24, Z+2	; 0x02
    2446:	93 81       	ldd	r25, Z+3	; 0x03
    2448:	10 97       	sbiw	r26, 0x00	; 0
    244a:	29 f0       	breq	.+10     	; 0x2456 <malloc+0x44>
    244c:	13 96       	adiw	r26, 0x03	; 3
    244e:	9c 93       	st	X, r25
    2450:	8e 93       	st	-X, r24
    2452:	12 97       	sbiw	r26, 0x02	; 2
    2454:	2c c0       	rjmp	.+88     	; 0x24ae <malloc+0x9c>
    2456:	90 93 c0 01 	sts	0x01C0, r25
    245a:	80 93 bf 01 	sts	0x01BF, r24
    245e:	27 c0       	rjmp	.+78     	; 0x24ae <malloc+0x9c>
    2460:	21 15       	cp	r18, r1
    2462:	31 05       	cpc	r19, r1
    2464:	31 f0       	breq	.+12     	; 0x2472 <malloc+0x60>
    2466:	42 17       	cp	r20, r18
    2468:	53 07       	cpc	r21, r19
    246a:	18 f0       	brcs	.+6      	; 0x2472 <malloc+0x60>
    246c:	a9 01       	movw	r20, r18
    246e:	db 01       	movw	r26, r22
    2470:	01 c0       	rjmp	.+2      	; 0x2474 <malloc+0x62>
    2472:	ef 01       	movw	r28, r30
    2474:	9a 01       	movw	r18, r20
    2476:	bd 01       	movw	r22, r26
    2478:	df 01       	movw	r26, r30
    247a:	02 80       	ldd	r0, Z+2	; 0x02
    247c:	f3 81       	ldd	r31, Z+3	; 0x03
    247e:	e0 2d       	mov	r30, r0
    2480:	d7 cf       	rjmp	.-82     	; 0x2430 <malloc+0x1e>
    2482:	21 15       	cp	r18, r1
    2484:	31 05       	cpc	r19, r1
    2486:	f9 f0       	breq	.+62     	; 0x24c6 <malloc+0xb4>
    2488:	28 1b       	sub	r18, r24
    248a:	39 0b       	sbc	r19, r25
    248c:	24 30       	cpi	r18, 0x04	; 4
    248e:	31 05       	cpc	r19, r1
    2490:	80 f4       	brcc	.+32     	; 0x24b2 <malloc+0xa0>
    2492:	8a 81       	ldd	r24, Y+2	; 0x02
    2494:	9b 81       	ldd	r25, Y+3	; 0x03
    2496:	61 15       	cp	r22, r1
    2498:	71 05       	cpc	r23, r1
    249a:	21 f0       	breq	.+8      	; 0x24a4 <malloc+0x92>
    249c:	fb 01       	movw	r30, r22
    249e:	93 83       	std	Z+3, r25	; 0x03
    24a0:	82 83       	std	Z+2, r24	; 0x02
    24a2:	04 c0       	rjmp	.+8      	; 0x24ac <malloc+0x9a>
    24a4:	90 93 c0 01 	sts	0x01C0, r25
    24a8:	80 93 bf 01 	sts	0x01BF, r24
    24ac:	fe 01       	movw	r30, r28
    24ae:	32 96       	adiw	r30, 0x02	; 2
    24b0:	44 c0       	rjmp	.+136    	; 0x253a <malloc+0x128>
    24b2:	fe 01       	movw	r30, r28
    24b4:	e2 0f       	add	r30, r18
    24b6:	f3 1f       	adc	r31, r19
    24b8:	81 93       	st	Z+, r24
    24ba:	91 93       	st	Z+, r25
    24bc:	22 50       	subi	r18, 0x02	; 2
    24be:	31 09       	sbc	r19, r1
    24c0:	39 83       	std	Y+1, r19	; 0x01
    24c2:	28 83       	st	Y, r18
    24c4:	3a c0       	rjmp	.+116    	; 0x253a <malloc+0x128>
    24c6:	20 91 bd 01 	lds	r18, 0x01BD
    24ca:	30 91 be 01 	lds	r19, 0x01BE
    24ce:	23 2b       	or	r18, r19
    24d0:	41 f4       	brne	.+16     	; 0x24e2 <malloc+0xd0>
    24d2:	20 91 2d 01 	lds	r18, 0x012D
    24d6:	30 91 2e 01 	lds	r19, 0x012E
    24da:	30 93 be 01 	sts	0x01BE, r19
    24de:	20 93 bd 01 	sts	0x01BD, r18
    24e2:	20 91 2b 01 	lds	r18, 0x012B
    24e6:	30 91 2c 01 	lds	r19, 0x012C
    24ea:	21 15       	cp	r18, r1
    24ec:	31 05       	cpc	r19, r1
    24ee:	41 f4       	brne	.+16     	; 0x2500 <malloc+0xee>
    24f0:	2d b7       	in	r18, 0x3d	; 61
    24f2:	3e b7       	in	r19, 0x3e	; 62
    24f4:	40 91 2f 01 	lds	r20, 0x012F
    24f8:	50 91 30 01 	lds	r21, 0x0130
    24fc:	24 1b       	sub	r18, r20
    24fe:	35 0b       	sbc	r19, r21
    2500:	e0 91 bd 01 	lds	r30, 0x01BD
    2504:	f0 91 be 01 	lds	r31, 0x01BE
    2508:	e2 17       	cp	r30, r18
    250a:	f3 07       	cpc	r31, r19
    250c:	a0 f4       	brcc	.+40     	; 0x2536 <malloc+0x124>
    250e:	2e 1b       	sub	r18, r30
    2510:	3f 0b       	sbc	r19, r31
    2512:	28 17       	cp	r18, r24
    2514:	39 07       	cpc	r19, r25
    2516:	78 f0       	brcs	.+30     	; 0x2536 <malloc+0x124>
    2518:	ac 01       	movw	r20, r24
    251a:	4e 5f       	subi	r20, 0xFE	; 254
    251c:	5f 4f       	sbci	r21, 0xFF	; 255
    251e:	24 17       	cp	r18, r20
    2520:	35 07       	cpc	r19, r21
    2522:	48 f0       	brcs	.+18     	; 0x2536 <malloc+0x124>
    2524:	4e 0f       	add	r20, r30
    2526:	5f 1f       	adc	r21, r31
    2528:	50 93 be 01 	sts	0x01BE, r21
    252c:	40 93 bd 01 	sts	0x01BD, r20
    2530:	81 93       	st	Z+, r24
    2532:	91 93       	st	Z+, r25
    2534:	02 c0       	rjmp	.+4      	; 0x253a <malloc+0x128>
    2536:	e0 e0       	ldi	r30, 0x00	; 0
    2538:	f0 e0       	ldi	r31, 0x00	; 0
    253a:	cf 01       	movw	r24, r30
    253c:	df 91       	pop	r29
    253e:	cf 91       	pop	r28
    2540:	08 95       	ret

00002542 <free>:
    2542:	cf 93       	push	r28
    2544:	df 93       	push	r29
    2546:	00 97       	sbiw	r24, 0x00	; 0
    2548:	09 f4       	brne	.+2      	; 0x254c <free+0xa>
    254a:	87 c0       	rjmp	.+270    	; 0x265a <free+0x118>
    254c:	fc 01       	movw	r30, r24
    254e:	32 97       	sbiw	r30, 0x02	; 2
    2550:	13 82       	std	Z+3, r1	; 0x03
    2552:	12 82       	std	Z+2, r1	; 0x02
    2554:	c0 91 bf 01 	lds	r28, 0x01BF
    2558:	d0 91 c0 01 	lds	r29, 0x01C0
    255c:	20 97       	sbiw	r28, 0x00	; 0
    255e:	81 f4       	brne	.+32     	; 0x2580 <free+0x3e>
    2560:	20 81       	ld	r18, Z
    2562:	31 81       	ldd	r19, Z+1	; 0x01
    2564:	28 0f       	add	r18, r24
    2566:	39 1f       	adc	r19, r25
    2568:	80 91 bd 01 	lds	r24, 0x01BD
    256c:	90 91 be 01 	lds	r25, 0x01BE
    2570:	82 17       	cp	r24, r18
    2572:	93 07       	cpc	r25, r19
    2574:	79 f5       	brne	.+94     	; 0x25d4 <free+0x92>
    2576:	f0 93 be 01 	sts	0x01BE, r31
    257a:	e0 93 bd 01 	sts	0x01BD, r30
    257e:	6d c0       	rjmp	.+218    	; 0x265a <free+0x118>
    2580:	de 01       	movw	r26, r28
    2582:	20 e0       	ldi	r18, 0x00	; 0
    2584:	30 e0       	ldi	r19, 0x00	; 0
    2586:	ae 17       	cp	r26, r30
    2588:	bf 07       	cpc	r27, r31
    258a:	50 f4       	brcc	.+20     	; 0x25a0 <free+0x5e>
    258c:	12 96       	adiw	r26, 0x02	; 2
    258e:	4d 91       	ld	r20, X+
    2590:	5c 91       	ld	r21, X
    2592:	13 97       	sbiw	r26, 0x03	; 3
    2594:	9d 01       	movw	r18, r26
    2596:	41 15       	cp	r20, r1
    2598:	51 05       	cpc	r21, r1
    259a:	09 f1       	breq	.+66     	; 0x25de <free+0x9c>
    259c:	da 01       	movw	r26, r20
    259e:	f3 cf       	rjmp	.-26     	; 0x2586 <free+0x44>
    25a0:	b3 83       	std	Z+3, r27	; 0x03
    25a2:	a2 83       	std	Z+2, r26	; 0x02
    25a4:	40 81       	ld	r20, Z
    25a6:	51 81       	ldd	r21, Z+1	; 0x01
    25a8:	84 0f       	add	r24, r20
    25aa:	95 1f       	adc	r25, r21
    25ac:	8a 17       	cp	r24, r26
    25ae:	9b 07       	cpc	r25, r27
    25b0:	71 f4       	brne	.+28     	; 0x25ce <free+0x8c>
    25b2:	8d 91       	ld	r24, X+
    25b4:	9c 91       	ld	r25, X
    25b6:	11 97       	sbiw	r26, 0x01	; 1
    25b8:	84 0f       	add	r24, r20
    25ba:	95 1f       	adc	r25, r21
    25bc:	02 96       	adiw	r24, 0x02	; 2
    25be:	91 83       	std	Z+1, r25	; 0x01
    25c0:	80 83       	st	Z, r24
    25c2:	12 96       	adiw	r26, 0x02	; 2
    25c4:	8d 91       	ld	r24, X+
    25c6:	9c 91       	ld	r25, X
    25c8:	13 97       	sbiw	r26, 0x03	; 3
    25ca:	93 83       	std	Z+3, r25	; 0x03
    25cc:	82 83       	std	Z+2, r24	; 0x02
    25ce:	21 15       	cp	r18, r1
    25d0:	31 05       	cpc	r19, r1
    25d2:	29 f4       	brne	.+10     	; 0x25de <free+0x9c>
    25d4:	f0 93 c0 01 	sts	0x01C0, r31
    25d8:	e0 93 bf 01 	sts	0x01BF, r30
    25dc:	3e c0       	rjmp	.+124    	; 0x265a <free+0x118>
    25de:	d9 01       	movw	r26, r18
    25e0:	13 96       	adiw	r26, 0x03	; 3
    25e2:	fc 93       	st	X, r31
    25e4:	ee 93       	st	-X, r30
    25e6:	12 97       	sbiw	r26, 0x02	; 2
    25e8:	4d 91       	ld	r20, X+
    25ea:	5d 91       	ld	r21, X+
    25ec:	a4 0f       	add	r26, r20
    25ee:	b5 1f       	adc	r27, r21
    25f0:	ea 17       	cp	r30, r26
    25f2:	fb 07       	cpc	r31, r27
    25f4:	79 f4       	brne	.+30     	; 0x2614 <free+0xd2>
    25f6:	80 81       	ld	r24, Z
    25f8:	91 81       	ldd	r25, Z+1	; 0x01
    25fa:	84 0f       	add	r24, r20
    25fc:	95 1f       	adc	r25, r21
    25fe:	02 96       	adiw	r24, 0x02	; 2
    2600:	d9 01       	movw	r26, r18
    2602:	11 96       	adiw	r26, 0x01	; 1
    2604:	9c 93       	st	X, r25
    2606:	8e 93       	st	-X, r24
    2608:	82 81       	ldd	r24, Z+2	; 0x02
    260a:	93 81       	ldd	r25, Z+3	; 0x03
    260c:	13 96       	adiw	r26, 0x03	; 3
    260e:	9c 93       	st	X, r25
    2610:	8e 93       	st	-X, r24
    2612:	12 97       	sbiw	r26, 0x02	; 2
    2614:	e0 e0       	ldi	r30, 0x00	; 0
    2616:	f0 e0       	ldi	r31, 0x00	; 0
    2618:	8a 81       	ldd	r24, Y+2	; 0x02
    261a:	9b 81       	ldd	r25, Y+3	; 0x03
    261c:	00 97       	sbiw	r24, 0x00	; 0
    261e:	19 f0       	breq	.+6      	; 0x2626 <free+0xe4>
    2620:	fe 01       	movw	r30, r28
    2622:	ec 01       	movw	r28, r24
    2624:	f9 cf       	rjmp	.-14     	; 0x2618 <free+0xd6>
    2626:	ce 01       	movw	r24, r28
    2628:	02 96       	adiw	r24, 0x02	; 2
    262a:	28 81       	ld	r18, Y
    262c:	39 81       	ldd	r19, Y+1	; 0x01
    262e:	82 0f       	add	r24, r18
    2630:	93 1f       	adc	r25, r19
    2632:	20 91 bd 01 	lds	r18, 0x01BD
    2636:	30 91 be 01 	lds	r19, 0x01BE
    263a:	28 17       	cp	r18, r24
    263c:	39 07       	cpc	r19, r25
    263e:	69 f4       	brne	.+26     	; 0x265a <free+0x118>
    2640:	30 97       	sbiw	r30, 0x00	; 0
    2642:	29 f4       	brne	.+10     	; 0x264e <free+0x10c>
    2644:	10 92 c0 01 	sts	0x01C0, r1
    2648:	10 92 bf 01 	sts	0x01BF, r1
    264c:	02 c0       	rjmp	.+4      	; 0x2652 <free+0x110>
    264e:	13 82       	std	Z+3, r1	; 0x03
    2650:	12 82       	std	Z+2, r1	; 0x02
    2652:	d0 93 be 01 	sts	0x01BE, r29
    2656:	c0 93 bd 01 	sts	0x01BD, r28
    265a:	df 91       	pop	r29
    265c:	cf 91       	pop	r28
    265e:	08 95       	ret

00002660 <__do_global_dtors>:
    2660:	10 e0       	ldi	r17, 0x00	; 0
    2662:	cc ea       	ldi	r28, 0xAC	; 172
    2664:	d0 e0       	ldi	r29, 0x00	; 0
    2666:	04 c0       	rjmp	.+8      	; 0x2670 <__do_global_dtors+0x10>
    2668:	fe 01       	movw	r30, r28
    266a:	0e 94 f6 11 	call	0x23ec	; 0x23ec <__tablejump__>
    266e:	22 96       	adiw	r28, 0x02	; 2
    2670:	ce 3a       	cpi	r28, 0xAE	; 174
    2672:	d1 07       	cpc	r29, r17
    2674:	c9 f7       	brne	.-14     	; 0x2668 <__do_global_dtors+0x8>
    2676:	f8 94       	cli

00002678 <__stop_program>:
    2678:	ff cf       	rjmp	.-2      	; 0x2678 <__stop_program>
